ARM GAS  C:\Users\mariu\AppData\Local\Temp\ccDEMJ3a.s 			page 1


   1              		.syntax unified
   2              		.cpu cortex-m3
   3              		.fpu softvfp
   4              		.eabi_attribute 20, 1
   5              		.eabi_attribute 21, 1
   6              		.eabi_attribute 23, 3
   7              		.eabi_attribute 24, 1
   8              		.eabi_attribute 25, 1
   9              		.eabi_attribute 26, 1
  10              		.eabi_attribute 30, 1
  11              		.eabi_attribute 34, 1
  12              		.eabi_attribute 18, 4
  13              		.thumb
  14              		.syntax unified
  15              		.file	"main.c"
  16              		.text
  17              	.Ltext0:
  18              		.cfi_sections	.debug_frame
  19              		.section	.text.main,"ax",%progbits
  20              		.align	2
  21              		.global	main
  22              		.thumb
  23              		.thumb_func
  24              		.type	main, %function
  25              	main:
  26              	.LFB63:
  27              		.file 1 "main.c"
   1:main.c        **** /* ========================================
   2:main.c        ****  *
   3:main.c        ****  * Copyright YOUR COMPANY, THE YEAR
   4:main.c        ****  * All Rights Reserved
   5:main.c        ****  * UNPUBLISHED, LICENSED SOFTWARE.
   6:main.c        ****  *
   7:main.c        ****  * CONFIDENTIAL AND PROPRIETARY INFORMATION
   8:main.c        ****  * WHICH IS THE PROPERTY OF your company.
   9:main.c        ****  *
  10:main.c        ****  * ========================================
  11:main.c        **** */
  12:main.c        **** #include "project.h"
  13:main.c        **** 
  14:main.c        **** void handleByteReceived(uint8_t byteReceived);
  15:main.c        **** CY_ISR_PROTO(ISR_2_handler);
  16:main.c        **** uint8_t onData = 0x45;
  17:main.c        **** uint8_t emptyData = 0xFF;
  18:main.c        **** uint8_t offData = 0x12;
  19:main.c        **** 
  20:main.c        **** int main(void)
  21:main.c        **** {
  28              		.loc 1 21 0
  29              		.cfi_startproc
  30              		@ Volatile: function does not return.
  31              		@ args = 0, pretend = 0, frame = 0
  32              		@ frame_needed = 0, uses_anonymous_args = 0
  33 0000 08B5     		push	{r3, lr}
  34              		.cfi_def_cfa_offset 8
  35              		.cfi_offset 3, -8
  36              		.cfi_offset 14, -4
ARM GAS  C:\Users\mariu\AppData\Local\Temp\ccDEMJ3a.s 			page 2


  22:main.c        ****     CyGlobalIntEnable; /* Enable global interrupts. */
  37              		.loc 1 22 0
  38              		.syntax unified
  39              	@ 22 "main.c" 1
  40 0002 62B6     		CPSIE   i
  41              	@ 0 "" 2
  23:main.c        ****     UART_1_Start();
  42              		.loc 1 23 0
  43              		.thumb
  44              		.syntax unified
  45 0004 FFF7FEFF 		bl	UART_1_Start
  46              	.LVL0:
  24:main.c        ****     SPIM_1_Start();
  47              		.loc 1 24 0
  48 0008 FFF7FEFF 		bl	SPIM_1_Start
  49              	.LVL1:
  25:main.c        ****     isr_2_StartEx(ISR_2_handler);
  50              		.loc 1 25 0
  51 000c 0448     		ldr	r0, .L4
  52 000e FFF7FEFF 		bl	isr_2_StartEx
  53              	.LVL2:
  54              	.L2:
  26:main.c        ****     
  27:main.c        ****     
  28:main.c        ****     for(;;)
  29:main.c        ****     {
  30:main.c        ****             SPIM_1_WriteTxData(emptyData);
  55              		.loc 1 30 0 discriminator 1
  56 0012 044B     		ldr	r3, .L4+4
  57 0014 1878     		ldrb	r0, [r3]	@ zero_extendqisi2
  58 0016 FFF7FEFF 		bl	SPIM_1_WriteTxData
  59              	.LVL3:
  31:main.c        ****             SPIM_1_ReadRxData();
  60              		.loc 1 31 0 discriminator 1
  61 001a FFF7FEFF 		bl	SPIM_1_ReadRxData
  62              	.LVL4:
  63 001e F8E7     		b	.L2
  64              	.L5:
  65              		.align	2
  66              	.L4:
  67 0020 00000000 		.word	ISR_2_handler
  68 0024 00000000 		.word	.LANCHOR0
  69              		.cfi_endproc
  70              	.LFE63:
  71              		.size	main, .-main
  72              		.section	.text.handleByteReceived,"ax",%progbits
  73              		.align	2
  74              		.global	handleByteReceived
  75              		.thumb
  76              		.thumb_func
  77              		.type	handleByteReceived, %function
  78              	handleByteReceived:
  79              	.LFB64:
  32:main.c        ****     }
  33:main.c        **** }
  34:main.c        **** 
  35:main.c        **** void handleByteReceived(uint8_t byteReceived)
ARM GAS  C:\Users\mariu\AppData\Local\Temp\ccDEMJ3a.s 			page 3


  36:main.c        **** {
  80              		.loc 1 36 0
  81              		.cfi_startproc
  82              		@ args = 0, pretend = 0, frame = 0
  83              		@ frame_needed = 0, uses_anonymous_args = 0
  84              	.LVL5:
  85 0000 08B5     		push	{r3, lr}
  86              		.cfi_def_cfa_offset 8
  87              		.cfi_offset 3, -8
  88              		.cfi_offset 14, -4
  37:main.c        ****     switch(byteReceived)
  89              		.loc 1 37 0
  90 0002 3128     		cmp	r0, #49
  91 0004 02D0     		beq	.L8
  92 0006 3228     		cmp	r0, #50
  93 0008 0AD0     		beq	.L9
  94 000a 08BD     		pop	{r3, pc}
  95              	.L8:
  38:main.c        ****     {
  39:main.c        ****         case '1' :
  40:main.c        ****         {
  41:main.c        ****             UART_1_PutString("Turning LED on    \r\n");
  96              		.loc 1 41 0
  97 000c 0948     		ldr	r0, .L11
  98              	.LVL6:
  99 000e FFF7FEFF 		bl	UART_1_PutString
 100              	.LVL7:
  42:main.c        ****             SPIM_1_WriteTxData(onData);
 101              		.loc 1 42 0
 102 0012 094B     		ldr	r3, .L11+4
 103 0014 5878     		ldrb	r0, [r3, #1]	@ zero_extendqisi2
 104 0016 FFF7FEFF 		bl	SPIM_1_WriteTxData
 105              	.LVL8:
  43:main.c        ****             SPIM_1_ReadRxData();
 106              		.loc 1 43 0
 107 001a FFF7FEFF 		bl	SPIM_1_ReadRxData
 108              	.LVL9:
  44:main.c        ****         }
  45:main.c        ****         break;
 109              		.loc 1 45 0
 110 001e 08BD     		pop	{r3, pc}
 111              	.LVL10:
 112              	.L9:
  46:main.c        ****         case '2' :
  47:main.c        ****         {
  48:main.c        ****             UART_1_PutString("Turning LED off   \r\n");
 113              		.loc 1 48 0
 114 0020 0648     		ldr	r0, .L11+8
 115              	.LVL11:
 116 0022 FFF7FEFF 		bl	UART_1_PutString
 117              	.LVL12:
  49:main.c        ****             SPIM_1_WriteTxData(offData);
 118              		.loc 1 49 0
 119 0026 044B     		ldr	r3, .L11+4
 120 0028 9878     		ldrb	r0, [r3, #2]	@ zero_extendqisi2
 121 002a FFF7FEFF 		bl	SPIM_1_WriteTxData
 122              	.LVL13:
ARM GAS  C:\Users\mariu\AppData\Local\Temp\ccDEMJ3a.s 			page 4


  50:main.c        ****             SPIM_1_ReadRxData();
 123              		.loc 1 50 0
 124 002e FFF7FEFF 		bl	SPIM_1_ReadRxData
 125              	.LVL14:
 126 0032 08BD     		pop	{r3, pc}
 127              	.L12:
 128              		.align	2
 129              	.L11:
 130 0034 00000000 		.word	.LC0
 131 0038 00000000 		.word	.LANCHOR0
 132 003c 18000000 		.word	.LC1
 133              		.cfi_endproc
 134              	.LFE64:
 135              		.size	handleByteReceived, .-handleByteReceived
 136              		.section	.text.ISR_2_handler,"ax",%progbits
 137              		.align	2
 138              		.global	ISR_2_handler
 139              		.thumb
 140              		.thumb_func
 141              		.type	ISR_2_handler, %function
 142              	ISR_2_handler:
 143              	.LFB65:
  51:main.c        ****         }
  52:main.c        ****         break;
  53:main.c        ****         
  54:main.c        ****         default :
  55:main.c        ****         {
  56:main.c        ****             // nothing
  57:main.c        ****         }
  58:main.c        ****         break;
  59:main.c        ****     }
  60:main.c        **** }
  61:main.c        **** 
  62:main.c        **** CY_ISR(ISR_2_handler)
  63:main.c        **** {
 144              		.loc 1 63 0
 145              		.cfi_startproc
 146              		@ args = 0, pretend = 0, frame = 0
 147              		@ frame_needed = 0, uses_anonymous_args = 0
 148 0000 38B5     		push	{r3, r4, r5, lr}
 149              		.cfi_def_cfa_offset 16
 150              		.cfi_offset 3, -16
 151              		.cfi_offset 4, -12
 152              		.cfi_offset 5, -8
 153              		.cfi_offset 14, -4
  64:main.c        ****     uint8_t bytesToRead = UART_1_GetRxBufferSize();
 154              		.loc 1 64 0
 155 0002 FFF7FEFF 		bl	UART_1_GetRxBufferSize
 156              	.LVL15:
 157 0006 0446     		mov	r4, r0
 158              	.LVL16:
  65:main.c        ****     while (bytesToRead > 0)
 159              		.loc 1 65 0
 160 0008 09E0     		b	.L14
 161              	.L15:
 162              	.LBB2:
  66:main.c        ****     {
ARM GAS  C:\Users\mariu\AppData\Local\Temp\ccDEMJ3a.s 			page 5


  67:main.c        ****        
  68:main.c        ****         
  69:main.c        ****         uint8_t byteReceived = UART_1_ReadRxData();
 163              		.loc 1 69 0
 164 000a FFF7FEFF 		bl	UART_1_ReadRxData
 165              	.LVL17:
 166 000e 0546     		mov	r5, r0
 167              	.LVL18:
  70:main.c        ****         UART_1_WriteTxData(byteReceived); // echo back
 168              		.loc 1 70 0
 169 0010 FFF7FEFF 		bl	UART_1_WriteTxData
 170              	.LVL19:
  71:main.c        ****         
  72:main.c        ****         
  73:main.c        ****         
  74:main.c        ****         handleByteReceived(byteReceived);
 171              		.loc 1 74 0
 172 0014 2846     		mov	r0, r5
 173 0016 FFF7FEFF 		bl	handleByteReceived
 174              	.LVL20:
  75:main.c        ****         
  76:main.c        ****         bytesToRead--;
 175              		.loc 1 76 0
 176 001a 013C     		subs	r4, r4, #1
 177              	.LVL21:
 178 001c E4B2     		uxtb	r4, r4
 179              	.LVL22:
 180              	.L14:
 181              	.LBE2:
  65:main.c        ****     {
 182              		.loc 1 65 0
 183 001e 002C     		cmp	r4, #0
 184 0020 F3D1     		bne	.L15
  77:main.c        ****         
  78:main.c        ****         
  79:main.c        ****     }
  80:main.c        **** }
 185              		.loc 1 80 0
 186 0022 38BD     		pop	{r3, r4, r5, pc}
 187              		.cfi_endproc
 188              	.LFE65:
 189              		.size	ISR_2_handler, .-ISR_2_handler
 190              		.global	offData
 191              		.global	emptyData
 192              		.global	onData
 193              		.data
 194              		.set	.LANCHOR0,. + 0
 195              		.type	emptyData, %object
 196              		.size	emptyData, 1
 197              	emptyData:
 198 0000 FF       		.byte	-1
 199              		.type	onData, %object
 200              		.size	onData, 1
 201              	onData:
 202 0001 45       		.byte	69
 203              		.type	offData, %object
 204              		.size	offData, 1
ARM GAS  C:\Users\mariu\AppData\Local\Temp\ccDEMJ3a.s 			page 6


 205              	offData:
 206 0002 12       		.byte	18
 207              		.section	.rodata.str1.4,"aMS",%progbits,1
 208              		.align	2
 209              	.LC0:
 210 0000 5475726E 		.ascii	"Turning LED on    \015\012\000"
 210      696E6720 
 210      4C454420 
 210      6F6E2020 
 210      20200D0A 
 211 0015 000000   		.space	3
 212              	.LC1:
 213 0018 5475726E 		.ascii	"Turning LED off   \015\012\000"
 213      696E6720 
 213      4C454420 
 213      6F666620 
 213      20200D0A 
 214              		.text
 215              	.Letext0:
 216              		.file 2 "c:\\program files (x86)\\cypress\\psoc creator\\4.4\\psoc creator\\import\\gnu\\arm\\5.4.
 217              		.file 3 "c:\\program files (x86)\\cypress\\psoc creator\\4.4\\psoc creator\\import\\gnu\\arm\\5.4.
 218              		.file 4 "Generated_Source\\PSoC5/core_cm3.h"
 219              		.file 5 "Generated_Source\\PSoC5/UART_1.h"
 220              		.file 6 "Generated_Source\\PSoC5/SPIM_1.h"
 221              		.file 7 "Generated_Source\\PSoC5/isr_2.h"