ARM GAS  C:\Users\kaaen\AppData\Local\Temp\ccw3mBXt.s 			page 1


   1              		.syntax unified
   2              		.cpu cortex-m3
   3              		.fpu softvfp
   4              		.eabi_attribute 20, 1
   5              		.eabi_attribute 21, 1
   6              		.eabi_attribute 23, 3
   7              		.eabi_attribute 24, 1
   8              		.eabi_attribute 25, 1
   9              		.eabi_attribute 26, 1
  10              		.eabi_attribute 30, 1
  11              		.eabi_attribute 34, 1
  12              		.eabi_attribute 18, 4
  13              		.thumb
  14              		.syntax unified
  15              		.file	"functions.c"
  16              		.text
  17              	.Ltext0:
  18              		.cfi_sections	.debug_frame
  19              		.section	.text.getDirection,"ax",%progbits
  20              		.align	2
  21              		.global	getDirection
  22              		.thumb
  23              		.thumb_func
  24              		.type	getDirection, %function
  25              	getDirection:
  26              	.LFB63:
  27              		.file 1 "functions.c"
   1:functions.c   **** #include "functions.h"
   2:functions.c   **** 
   3:functions.c   **** //Variables
   4:functions.c   **** uint16_t speedDelay = 20; // Used to set Stepper motor speed (delay) 
   5:functions.c   **** uint8_t state = 1; // Used to change switch between 1/A = Full, 2/S = Half, 3/D = Wave
   6:functions.c   **** uint8_t direction = 0; // Used to save direction. 0 = Stopped, 1 = Forwards, 2 = Backwards
   7:functions.c   **** 
   8:functions.c   **** uint16_t getDirection(void) {
  28              		.loc 1 8 0
  29              		.cfi_startproc
  30              		@ args = 0, pretend = 0, frame = 0
  31              		@ frame_needed = 0, uses_anonymous_args = 0
  32              		@ link register save eliminated.
   9:functions.c   ****     return direction;
  10:functions.c   **** }
  33              		.loc 1 10 0
  34 0000 014B     		ldr	r3, .L2
  35 0002 1878     		ldrb	r0, [r3]	@ zero_extendqisi2
  36 0004 7047     		bx	lr
  37              	.L3:
  38 0006 00BF     		.align	2
  39              	.L2:
  40 0008 00000000 		.word	.LANCHOR0
  41              		.cfi_endproc
  42              	.LFE63:
  43              		.size	getDirection, .-getDirection
  44              		.section	.text.getState,"ax",%progbits
  45              		.align	2
  46              		.global	getState
  47              		.thumb
ARM GAS  C:\Users\kaaen\AppData\Local\Temp\ccw3mBXt.s 			page 2


  48              		.thumb_func
  49              		.type	getState, %function
  50              	getState:
  51              	.LFB64:
  11:functions.c   **** 
  12:functions.c   **** uint8_t getState(void) {
  52              		.loc 1 12 0
  53              		.cfi_startproc
  54              		@ args = 0, pretend = 0, frame = 0
  55              		@ frame_needed = 0, uses_anonymous_args = 0
  56              		@ link register save eliminated.
  13:functions.c   ****     return state;    
  14:functions.c   **** }
  57              		.loc 1 14 0
  58 0000 014B     		ldr	r3, .L5
  59 0002 1878     		ldrb	r0, [r3]	@ zero_extendqisi2
  60 0004 7047     		bx	lr
  61              	.L6:
  62 0006 00BF     		.align	2
  63              	.L5:
  64 0008 00000000 		.word	.LANCHOR1
  65              		.cfi_endproc
  66              	.LFE64:
  67              		.size	getState, .-getState
  68              		.section	.text.changeState,"ax",%progbits
  69              		.align	2
  70              		.global	changeState
  71              		.thumb
  72              		.thumb_func
  73              		.type	changeState, %function
  74              	changeState:
  75              	.LFB66:
  15:functions.c   **** 
  16:functions.c   **** void run(char byte) {
  17:functions.c   ****     switch(byte)
  18:functions.c   ****     {
  19:functions.c   ****         case 'q' :
  20:functions.c   ****         {
  21:functions.c   ****             decreaseSpeed();
  22:functions.c   ****         }
  23:functions.c   ****         break;
  24:functions.c   ****         case 'w' :
  25:functions.c   ****         {
  26:functions.c   ****             increaseSpeed();
  27:functions.c   ****         }
  28:functions.c   ****         break;
  29:functions.c   ****         
  30:functions.c   ****         case 'e' :
  31:functions.c   ****         {
  32:functions.c   ****             runOnceForward();
  33:functions.c   ****         }
  34:functions.c   ****         break;
  35:functions.c   ****         
  36:functions.c   ****         case 'r' :
  37:functions.c   ****         {
  38:functions.c   ****             runOnceBackwards();
  39:functions.c   ****         }
ARM GAS  C:\Users\kaaen\AppData\Local\Temp\ccw3mBXt.s 			page 3


  40:functions.c   ****         break;
  41:functions.c   ****         
  42:functions.c   ****         case '1' :
  43:functions.c   ****         {
  44:functions.c   ****             driveForwards();
  45:functions.c   ****         }
  46:functions.c   ****         break;
  47:functions.c   ****         
  48:functions.c   ****         case '2' :
  49:functions.c   ****         {
  50:functions.c   ****             driveBackwards();
  51:functions.c   ****         }
  52:functions.c   ****         break;
  53:functions.c   ****         
  54:functions.c   ****         case '0' :
  55:functions.c   ****         {
  56:functions.c   ****             stop();
  57:functions.c   ****         }
  58:functions.c   ****         break;
  59:functions.c   ****         
  60:functions.c   ****         // Change to full step
  61:functions.c   ****         case 'a' :
  62:functions.c   ****         {
  63:functions.c   ****             changeState(1);
  64:functions.c   ****         }
  65:functions.c   ****         break;
  66:functions.c   ****         
  67:functions.c   ****         // Change to half step
  68:functions.c   ****         case 's' :
  69:functions.c   ****         {
  70:functions.c   ****             changeState(2);
  71:functions.c   ****         }
  72:functions.c   ****         break;
  73:functions.c   ****         
  74:functions.c   ****         // Change to wave-drive
  75:functions.c   ****         case 'd' :
  76:functions.c   ****         {
  77:functions.c   ****             changeState(3);
  78:functions.c   ****         }
  79:functions.c   ****         break;
  80:functions.c   ****         default :
  81:functions.c   ****         {
  82:functions.c   ****             // nothing
  83:functions.c   ****         }
  84:functions.c   ****         break;
  85:functions.c   ****     }
  86:functions.c   **** }
  87:functions.c   **** 
  88:functions.c   **** void changeState(int stateNumb) {
  76              		.loc 1 88 0
  77              		.cfi_startproc
  78              		@ args = 0, pretend = 0, frame = 0
  79              		@ frame_needed = 0, uses_anonymous_args = 0
  80              		@ link register save eliminated.
  81              	.LVL0:
  89:functions.c   ****     state = stateNumb;
  82              		.loc 1 89 0
ARM GAS  C:\Users\kaaen\AppData\Local\Temp\ccw3mBXt.s 			page 4


  83 0000 014B     		ldr	r3, .L8
  84 0002 1870     		strb	r0, [r3]
  85 0004 7047     		bx	lr
  86              	.L9:
  87 0006 00BF     		.align	2
  88              	.L8:
  89 0008 00000000 		.word	.LANCHOR1
  90              		.cfi_endproc
  91              	.LFE66:
  92              		.size	changeState, .-changeState
  93              		.section	.text.decreaseSpeed,"ax",%progbits
  94              		.align	2
  95              		.global	decreaseSpeed
  96              		.thumb
  97              		.thumb_func
  98              		.type	decreaseSpeed, %function
  99              	decreaseSpeed:
 100              	.LFB67:
  90:functions.c   **** }
  91:functions.c   **** 
  92:functions.c   **** void decreaseSpeed()
  93:functions.c   **** {
 101              		.loc 1 93 0
 102              		.cfi_startproc
 103              		@ args = 0, pretend = 0, frame = 0
 104              		@ frame_needed = 0, uses_anonymous_args = 0
 105 0000 08B5     		push	{r3, lr}
 106              		.cfi_def_cfa_offset 8
 107              		.cfi_offset 3, -8
 108              		.cfi_offset 14, -4
  94:functions.c   ****     if(speedDelay < 100) {
 109              		.loc 1 94 0
 110 0002 064B     		ldr	r3, .L14
 111 0004 5B88     		ldrh	r3, [r3, #2]
 112 0006 632B     		cmp	r3, #99
 113 0008 03D8     		bhi	.L11
  95:functions.c   ****         speedDelay += 2;   
 114              		.loc 1 95 0
 115 000a 0233     		adds	r3, r3, #2
 116 000c 034A     		ldr	r2, .L14
 117 000e 5380     		strh	r3, [r2, #2]	@ movhi
 118 0010 08BD     		pop	{r3, pc}
 119              	.L11:
  96:functions.c   ****     } else {
  97:functions.c   ****         UART_1_PutString("Motor cannot go slower\r\n");
 120              		.loc 1 97 0
 121 0012 0348     		ldr	r0, .L14+4
 122 0014 FFF7FEFF 		bl	UART_1_PutString
 123              	.LVL1:
 124 0018 08BD     		pop	{r3, pc}
 125              	.L15:
 126 001a 00BF     		.align	2
 127              	.L14:
 128 001c 00000000 		.word	.LANCHOR1
 129 0020 00000000 		.word	.LC0
 130              		.cfi_endproc
 131              	.LFE67:
ARM GAS  C:\Users\kaaen\AppData\Local\Temp\ccw3mBXt.s 			page 5


 132              		.size	decreaseSpeed, .-decreaseSpeed
 133              		.section	.text.increaseSpeed,"ax",%progbits
 134              		.align	2
 135              		.global	increaseSpeed
 136              		.thumb
 137              		.thumb_func
 138              		.type	increaseSpeed, %function
 139              	increaseSpeed:
 140              	.LFB68:
  98:functions.c   ****     }
  99:functions.c   **** }
 100:functions.c   **** 
 101:functions.c   **** void increaseSpeed()
 102:functions.c   **** {
 141              		.loc 1 102 0
 142              		.cfi_startproc
 143              		@ args = 0, pretend = 0, frame = 0
 144              		@ frame_needed = 0, uses_anonymous_args = 0
 145 0000 08B5     		push	{r3, lr}
 146              		.cfi_def_cfa_offset 8
 147              		.cfi_offset 3, -8
 148              		.cfi_offset 14, -4
 103:functions.c   ****     if(speedDelay > 2) {
 149              		.loc 1 103 0
 150 0002 064B     		ldr	r3, .L20
 151 0004 5B88     		ldrh	r3, [r3, #2]
 152 0006 022B     		cmp	r3, #2
 153 0008 03D9     		bls	.L17
 104:functions.c   ****         speedDelay -= 2;   
 154              		.loc 1 104 0
 155 000a 023B     		subs	r3, r3, #2
 156 000c 034A     		ldr	r2, .L20
 157 000e 5380     		strh	r3, [r2, #2]	@ movhi
 158 0010 08BD     		pop	{r3, pc}
 159              	.L17:
 105:functions.c   ****     } else {
 106:functions.c   ****         UART_1_PutString("Motor cannot go faster\r\n");
 160              		.loc 1 106 0
 161 0012 0348     		ldr	r0, .L20+4
 162 0014 FFF7FEFF 		bl	UART_1_PutString
 163              	.LVL2:
 164 0018 08BD     		pop	{r3, pc}
 165              	.L21:
 166 001a 00BF     		.align	2
 167              	.L20:
 168 001c 00000000 		.word	.LANCHOR1
 169 0020 1C000000 		.word	.LC1
 170              		.cfi_endproc
 171              	.LFE68:
 172              		.size	increaseSpeed, .-increaseSpeed
 173              		.section	.text.driveForwards,"ax",%progbits
 174              		.align	2
 175              		.global	driveForwards
 176              		.thumb
 177              		.thumb_func
 178              		.type	driveForwards, %function
 179              	driveForwards:
ARM GAS  C:\Users\kaaen\AppData\Local\Temp\ccw3mBXt.s 			page 6


 180              	.LFB69:
 107:functions.c   ****     }
 108:functions.c   **** }
 109:functions.c   **** 
 110:functions.c   **** void driveForwards()
 111:functions.c   **** {
 181              		.loc 1 111 0
 182              		.cfi_startproc
 183              		@ args = 0, pretend = 0, frame = 0
 184              		@ frame_needed = 0, uses_anonymous_args = 0
 185              		@ link register save eliminated.
 112:functions.c   ****     direction = 1;
 186              		.loc 1 112 0
 187 0000 0122     		movs	r2, #1
 188 0002 014B     		ldr	r3, .L23
 189 0004 1A70     		strb	r2, [r3]
 190 0006 7047     		bx	lr
 191              	.L24:
 192              		.align	2
 193              	.L23:
 194 0008 00000000 		.word	.LANCHOR0
 195              		.cfi_endproc
 196              	.LFE69:
 197              		.size	driveForwards, .-driveForwards
 198              		.section	.text.driveBackwards,"ax",%progbits
 199              		.align	2
 200              		.global	driveBackwards
 201              		.thumb
 202              		.thumb_func
 203              		.type	driveBackwards, %function
 204              	driveBackwards:
 205              	.LFB70:
 113:functions.c   **** }
 114:functions.c   **** 
 115:functions.c   **** void driveBackwards()
 116:functions.c   **** {
 206              		.loc 1 116 0
 207              		.cfi_startproc
 208              		@ args = 0, pretend = 0, frame = 0
 209              		@ frame_needed = 0, uses_anonymous_args = 0
 210              		@ link register save eliminated.
 117:functions.c   ****     direction = 2;
 211              		.loc 1 117 0
 212 0000 0222     		movs	r2, #2
 213 0002 014B     		ldr	r3, .L26
 214 0004 1A70     		strb	r2, [r3]
 215 0006 7047     		bx	lr
 216              	.L27:
 217              		.align	2
 218              	.L26:
 219 0008 00000000 		.word	.LANCHOR0
 220              		.cfi_endproc
 221              	.LFE70:
 222              		.size	driveBackwards, .-driveBackwards
 223              		.section	.text.stop,"ax",%progbits
 224              		.align	2
 225              		.global	stop
ARM GAS  C:\Users\kaaen\AppData\Local\Temp\ccw3mBXt.s 			page 7


 226              		.thumb
 227              		.thumb_func
 228              		.type	stop, %function
 229              	stop:
 230              	.LFB71:
 118:functions.c   **** }
 119:functions.c   **** 
 120:functions.c   **** void stop()
 121:functions.c   **** {
 231              		.loc 1 121 0
 232              		.cfi_startproc
 233              		@ args = 0, pretend = 0, frame = 0
 234              		@ frame_needed = 0, uses_anonymous_args = 0
 235 0000 10B5     		push	{r4, lr}
 236              		.cfi_def_cfa_offset 8
 237              		.cfi_offset 4, -8
 238              		.cfi_offset 14, -4
 122:functions.c   ****     direction = 0;
 239              		.loc 1 122 0
 240 0002 0024     		movs	r4, #0
 241 0004 074B     		ldr	r3, .L30
 242 0006 1C70     		strb	r4, [r3]
 123:functions.c   ****     A1_Green_Write(0);
 243              		.loc 1 123 0
 244 0008 2046     		mov	r0, r4
 245 000a FFF7FEFF 		bl	A1_Green_Write
 246              	.LVL3:
 124:functions.c   ****     A2_Orange_Write(0);
 247              		.loc 1 124 0
 248 000e 2046     		mov	r0, r4
 249 0010 FFF7FEFF 		bl	A2_Orange_Write
 250              	.LVL4:
 125:functions.c   ****     B1_Purple_Write(0);
 251              		.loc 1 125 0
 252 0014 2046     		mov	r0, r4
 253 0016 FFF7FEFF 		bl	B1_Purple_Write
 254              	.LVL5:
 126:functions.c   ****     B2_White_Write(0);
 255              		.loc 1 126 0
 256 001a 2046     		mov	r0, r4
 257 001c FFF7FEFF 		bl	B2_White_Write
 258              	.LVL6:
 259 0020 10BD     		pop	{r4, pc}
 260              	.L31:
 261 0022 00BF     		.align	2
 262              	.L30:
 263 0024 00000000 		.word	.LANCHOR0
 264              		.cfi_endproc
 265              	.LFE71:
 266              		.size	stop, .-stop
 267              		.section	.text.driveForwardsHalf,"ax",%progbits
 268              		.align	2
 269              		.global	driveForwardsHalf
 270              		.thumb
 271              		.thumb_func
 272              		.type	driveForwardsHalf, %function
 273              	driveForwardsHalf:
ARM GAS  C:\Users\kaaen\AppData\Local\Temp\ccw3mBXt.s 			page 8


 274              	.LFB72:
 127:functions.c   **** }
 128:functions.c   **** 
 129:functions.c   **** void driveForwardsHalf() {
 275              		.loc 1 129 0
 276              		.cfi_startproc
 277              		@ args = 0, pretend = 0, frame = 0
 278              		@ frame_needed = 0, uses_anonymous_args = 0
 279 0000 10B5     		push	{r4, lr}
 280              		.cfi_def_cfa_offset 8
 281              		.cfi_offset 4, -8
 282              		.cfi_offset 14, -4
 130:functions.c   ****     A1_Green_Write(1);
 283              		.loc 1 130 0
 284 0002 0120     		movs	r0, #1
 285 0004 FFF7FEFF 		bl	A1_Green_Write
 286              	.LVL7:
 131:functions.c   ****     A2_Orange_Write(0);
 287              		.loc 1 131 0
 288 0008 0020     		movs	r0, #0
 289 000a FFF7FEFF 		bl	A2_Orange_Write
 290              	.LVL8:
 132:functions.c   ****     B1_Purple_Write(1);
 291              		.loc 1 132 0
 292 000e 0120     		movs	r0, #1
 293 0010 FFF7FEFF 		bl	B1_Purple_Write
 294              	.LVL9:
 133:functions.c   ****     B2_White_Write(0);
 295              		.loc 1 133 0
 296 0014 0020     		movs	r0, #0
 297 0016 FFF7FEFF 		bl	B2_White_Write
 298              	.LVL10:
 134:functions.c   ****     CyDelay(speedDelay);
 299              		.loc 1 134 0
 300 001a 374C     		ldr	r4, .L34
 301 001c 6088     		ldrh	r0, [r4, #2]
 302 001e FFF7FEFF 		bl	CyDelay
 303              	.LVL11:
 135:functions.c   ****                 
 136:functions.c   ****     A1_Green_Write(0);
 304              		.loc 1 136 0
 305 0022 0020     		movs	r0, #0
 306 0024 FFF7FEFF 		bl	A1_Green_Write
 307              	.LVL12:
 137:functions.c   ****     A2_Orange_Write(1);
 308              		.loc 1 137 0
 309 0028 0120     		movs	r0, #1
 310 002a FFF7FEFF 		bl	A2_Orange_Write
 311              	.LVL13:
 138:functions.c   ****     B1_Purple_Write(0);
 312              		.loc 1 138 0
 313 002e 0020     		movs	r0, #0
 314 0030 FFF7FEFF 		bl	B1_Purple_Write
 315              	.LVL14:
 139:functions.c   ****     B2_White_Write(0);
 316              		.loc 1 139 0
 317 0034 0020     		movs	r0, #0
ARM GAS  C:\Users\kaaen\AppData\Local\Temp\ccw3mBXt.s 			page 9


 318 0036 FFF7FEFF 		bl	B2_White_Write
 319              	.LVL15:
 140:functions.c   ****     CyDelay(speedDelay);
 320              		.loc 1 140 0
 321 003a 6088     		ldrh	r0, [r4, #2]
 322 003c FFF7FEFF 		bl	CyDelay
 323              	.LVL16:
 141:functions.c   ****                 
 142:functions.c   ****     A1_Green_Write(0);
 324              		.loc 1 142 0
 325 0040 0020     		movs	r0, #0
 326 0042 FFF7FEFF 		bl	A1_Green_Write
 327              	.LVL17:
 143:functions.c   ****     A2_Orange_Write(1);
 328              		.loc 1 143 0
 329 0046 0120     		movs	r0, #1
 330 0048 FFF7FEFF 		bl	A2_Orange_Write
 331              	.LVL18:
 144:functions.c   ****     B1_Purple_Write(1);
 332              		.loc 1 144 0
 333 004c 0120     		movs	r0, #1
 334 004e FFF7FEFF 		bl	B1_Purple_Write
 335              	.LVL19:
 145:functions.c   ****     B2_White_Write(0);
 336              		.loc 1 145 0
 337 0052 0020     		movs	r0, #0
 338 0054 FFF7FEFF 		bl	B2_White_Write
 339              	.LVL20:
 146:functions.c   ****     CyDelay(speedDelay);
 340              		.loc 1 146 0
 341 0058 6088     		ldrh	r0, [r4, #2]
 342 005a FFF7FEFF 		bl	CyDelay
 343              	.LVL21:
 147:functions.c   ****                 
 148:functions.c   ****     A1_Green_Write(0);
 344              		.loc 1 148 0
 345 005e 0020     		movs	r0, #0
 346 0060 FFF7FEFF 		bl	A1_Green_Write
 347              	.LVL22:
 149:functions.c   ****     A2_Orange_Write(1);
 348              		.loc 1 149 0
 349 0064 0120     		movs	r0, #1
 350 0066 FFF7FEFF 		bl	A2_Orange_Write
 351              	.LVL23:
 150:functions.c   ****     B1_Purple_Write(0);
 352              		.loc 1 150 0
 353 006a 0020     		movs	r0, #0
 354 006c FFF7FEFF 		bl	B1_Purple_Write
 355              	.LVL24:
 151:functions.c   ****     B2_White_Write(0); 
 356              		.loc 1 151 0
 357 0070 0020     		movs	r0, #0
 358 0072 FFF7FEFF 		bl	B2_White_Write
 359              	.LVL25:
 152:functions.c   ****     CyDelay(speedDelay); 
 360              		.loc 1 152 0
 361 0076 6088     		ldrh	r0, [r4, #2]
ARM GAS  C:\Users\kaaen\AppData\Local\Temp\ccw3mBXt.s 			page 10


 362 0078 FFF7FEFF 		bl	CyDelay
 363              	.LVL26:
 153:functions.c   ****     
 154:functions.c   ****     A1_Green_Write(0);
 364              		.loc 1 154 0
 365 007c 0020     		movs	r0, #0
 366 007e FFF7FEFF 		bl	A1_Green_Write
 367              	.LVL27:
 155:functions.c   ****     A2_Orange_Write(1);
 368              		.loc 1 155 0
 369 0082 0120     		movs	r0, #1
 370 0084 FFF7FEFF 		bl	A2_Orange_Write
 371              	.LVL28:
 156:functions.c   ****     B1_Purple_Write(0);
 372              		.loc 1 156 0
 373 0088 0020     		movs	r0, #0
 374 008a FFF7FEFF 		bl	B1_Purple_Write
 375              	.LVL29:
 157:functions.c   ****     B2_White_Write(1); 
 376              		.loc 1 157 0
 377 008e 0120     		movs	r0, #1
 378 0090 FFF7FEFF 		bl	B2_White_Write
 379              	.LVL30:
 158:functions.c   ****     CyDelay(speedDelay); 
 380              		.loc 1 158 0
 381 0094 6088     		ldrh	r0, [r4, #2]
 382 0096 FFF7FEFF 		bl	CyDelay
 383              	.LVL31:
 159:functions.c   ****     
 160:functions.c   ****     A1_Green_Write(0);
 384              		.loc 1 160 0
 385 009a 0020     		movs	r0, #0
 386 009c FFF7FEFF 		bl	A1_Green_Write
 387              	.LVL32:
 161:functions.c   ****     A2_Orange_Write(0);
 388              		.loc 1 161 0
 389 00a0 0020     		movs	r0, #0
 390 00a2 FFF7FEFF 		bl	A2_Orange_Write
 391              	.LVL33:
 162:functions.c   ****     B1_Purple_Write(0);
 392              		.loc 1 162 0
 393 00a6 0020     		movs	r0, #0
 394 00a8 FFF7FEFF 		bl	B1_Purple_Write
 395              	.LVL34:
 163:functions.c   ****     B2_White_Write(1); 
 396              		.loc 1 163 0
 397 00ac 0120     		movs	r0, #1
 398 00ae FFF7FEFF 		bl	B2_White_Write
 399              	.LVL35:
 164:functions.c   ****     CyDelay(speedDelay);
 400              		.loc 1 164 0
 401 00b2 6088     		ldrh	r0, [r4, #2]
 402 00b4 FFF7FEFF 		bl	CyDelay
 403              	.LVL36:
 165:functions.c   ****     
 166:functions.c   ****     A1_Green_Write(1);
 404              		.loc 1 166 0
ARM GAS  C:\Users\kaaen\AppData\Local\Temp\ccw3mBXt.s 			page 11


 405 00b8 0120     		movs	r0, #1
 406 00ba FFF7FEFF 		bl	A1_Green_Write
 407              	.LVL37:
 167:functions.c   ****     A2_Orange_Write(0);
 408              		.loc 1 167 0
 409 00be 0020     		movs	r0, #0
 410 00c0 FFF7FEFF 		bl	A2_Orange_Write
 411              	.LVL38:
 168:functions.c   ****     B1_Purple_Write(0);
 412              		.loc 1 168 0
 413 00c4 0020     		movs	r0, #0
 414 00c6 FFF7FEFF 		bl	B1_Purple_Write
 415              	.LVL39:
 169:functions.c   ****     B2_White_Write(1); 
 416              		.loc 1 169 0
 417 00ca 0120     		movs	r0, #1
 418 00cc FFF7FEFF 		bl	B2_White_Write
 419              	.LVL40:
 170:functions.c   ****     CyDelay(speedDelay); 
 420              		.loc 1 170 0
 421 00d0 6088     		ldrh	r0, [r4, #2]
 422 00d2 FFF7FEFF 		bl	CyDelay
 423              	.LVL41:
 171:functions.c   ****     
 172:functions.c   ****     A1_Green_Write(1);
 424              		.loc 1 172 0
 425 00d6 0120     		movs	r0, #1
 426 00d8 FFF7FEFF 		bl	A1_Green_Write
 427              	.LVL42:
 173:functions.c   ****     A2_Orange_Write(0);
 428              		.loc 1 173 0
 429 00dc 0020     		movs	r0, #0
 430 00de FFF7FEFF 		bl	A2_Orange_Write
 431              	.LVL43:
 174:functions.c   ****     B1_Purple_Write(0);
 432              		.loc 1 174 0
 433 00e2 0020     		movs	r0, #0
 434 00e4 FFF7FEFF 		bl	B1_Purple_Write
 435              	.LVL44:
 175:functions.c   ****     B2_White_Write(0); 
 436              		.loc 1 175 0
 437 00e8 0020     		movs	r0, #0
 438 00ea FFF7FEFF 		bl	B2_White_Write
 439              	.LVL45:
 176:functions.c   ****     CyDelay(speedDelay);  
 440              		.loc 1 176 0
 441 00ee 6088     		ldrh	r0, [r4, #2]
 442 00f0 FFF7FEFF 		bl	CyDelay
 443              	.LVL46:
 444 00f4 10BD     		pop	{r4, pc}
 445              	.L35:
 446 00f6 00BF     		.align	2
 447              	.L34:
 448 00f8 00000000 		.word	.LANCHOR1
 449              		.cfi_endproc
 450              	.LFE72:
 451              		.size	driveForwardsHalf, .-driveForwardsHalf
ARM GAS  C:\Users\kaaen\AppData\Local\Temp\ccw3mBXt.s 			page 12


 452              		.section	.text.driveForwardsFull,"ax",%progbits
 453              		.align	2
 454              		.global	driveForwardsFull
 455              		.thumb
 456              		.thumb_func
 457              		.type	driveForwardsFull, %function
 458              	driveForwardsFull:
 459              	.LFB73:
 177:functions.c   ****     
 178:functions.c   **** }
 179:functions.c   **** void driveForwardsFull() {
 460              		.loc 1 179 0
 461              		.cfi_startproc
 462              		@ args = 0, pretend = 0, frame = 0
 463              		@ frame_needed = 0, uses_anonymous_args = 0
 464 0000 10B5     		push	{r4, lr}
 465              		.cfi_def_cfa_offset 8
 466              		.cfi_offset 4, -8
 467              		.cfi_offset 14, -4
 180:functions.c   ****     A1_Green_Write(1);
 468              		.loc 1 180 0
 469 0002 0120     		movs	r0, #1
 470 0004 FFF7FEFF 		bl	A1_Green_Write
 471              	.LVL47:
 181:functions.c   ****     A2_Orange_Write(0);
 472              		.loc 1 181 0
 473 0008 0020     		movs	r0, #0
 474 000a FFF7FEFF 		bl	A2_Orange_Write
 475              	.LVL48:
 182:functions.c   ****     B1_Purple_Write(1);
 476              		.loc 1 182 0
 477 000e 0120     		movs	r0, #1
 478 0010 FFF7FEFF 		bl	B1_Purple_Write
 479              	.LVL49:
 183:functions.c   ****     B2_White_Write(0);
 480              		.loc 1 183 0
 481 0014 0020     		movs	r0, #0
 482 0016 FFF7FEFF 		bl	B2_White_Write
 483              	.LVL50:
 184:functions.c   ****     CyDelay(speedDelay);
 484              		.loc 1 184 0
 485 001a 194C     		ldr	r4, .L38
 486 001c 6088     		ldrh	r0, [r4, #2]
 487 001e FFF7FEFF 		bl	CyDelay
 488              	.LVL51:
 185:functions.c   ****     
 186:functions.c   ****     A1_Green_Write(0);
 489              		.loc 1 186 0
 490 0022 0020     		movs	r0, #0
 491 0024 FFF7FEFF 		bl	A1_Green_Write
 492              	.LVL52:
 187:functions.c   ****     A2_Orange_Write(1);
 493              		.loc 1 187 0
 494 0028 0120     		movs	r0, #1
 495 002a FFF7FEFF 		bl	A2_Orange_Write
 496              	.LVL53:
 188:functions.c   ****     B1_Purple_Write(1);
ARM GAS  C:\Users\kaaen\AppData\Local\Temp\ccw3mBXt.s 			page 13


 497              		.loc 1 188 0
 498 002e 0120     		movs	r0, #1
 499 0030 FFF7FEFF 		bl	B1_Purple_Write
 500              	.LVL54:
 189:functions.c   ****     B2_White_Write(0);
 501              		.loc 1 189 0
 502 0034 0020     		movs	r0, #0
 503 0036 FFF7FEFF 		bl	B2_White_Write
 504              	.LVL55:
 190:functions.c   ****     CyDelay(speedDelay);
 505              		.loc 1 190 0
 506 003a 6088     		ldrh	r0, [r4, #2]
 507 003c FFF7FEFF 		bl	CyDelay
 508              	.LVL56:
 191:functions.c   ****     
 192:functions.c   ****     A1_Green_Write(0);
 509              		.loc 1 192 0
 510 0040 0020     		movs	r0, #0
 511 0042 FFF7FEFF 		bl	A1_Green_Write
 512              	.LVL57:
 193:functions.c   ****     A2_Orange_Write(1);
 513              		.loc 1 193 0
 514 0046 0120     		movs	r0, #1
 515 0048 FFF7FEFF 		bl	A2_Orange_Write
 516              	.LVL58:
 194:functions.c   ****     B1_Purple_Write(0);
 517              		.loc 1 194 0
 518 004c 0020     		movs	r0, #0
 519 004e FFF7FEFF 		bl	B1_Purple_Write
 520              	.LVL59:
 195:functions.c   ****     B2_White_Write(1);
 521              		.loc 1 195 0
 522 0052 0120     		movs	r0, #1
 523 0054 FFF7FEFF 		bl	B2_White_Write
 524              	.LVL60:
 196:functions.c   ****     CyDelay(speedDelay);
 525              		.loc 1 196 0
 526 0058 6088     		ldrh	r0, [r4, #2]
 527 005a FFF7FEFF 		bl	CyDelay
 528              	.LVL61:
 197:functions.c   ****     
 198:functions.c   ****     A1_Green_Write(1);
 529              		.loc 1 198 0
 530 005e 0120     		movs	r0, #1
 531 0060 FFF7FEFF 		bl	A1_Green_Write
 532              	.LVL62:
 199:functions.c   ****     A2_Orange_Write(0);
 533              		.loc 1 199 0
 534 0064 0020     		movs	r0, #0
 535 0066 FFF7FEFF 		bl	A2_Orange_Write
 536              	.LVL63:
 200:functions.c   ****     B1_Purple_Write(0);
 537              		.loc 1 200 0
 538 006a 0020     		movs	r0, #0
 539 006c FFF7FEFF 		bl	B1_Purple_Write
 540              	.LVL64:
 201:functions.c   ****     B2_White_Write(1);
ARM GAS  C:\Users\kaaen\AppData\Local\Temp\ccw3mBXt.s 			page 14


 541              		.loc 1 201 0
 542 0070 0120     		movs	r0, #1
 543 0072 FFF7FEFF 		bl	B2_White_Write
 544              	.LVL65:
 202:functions.c   ****     CyDelay(speedDelay);
 545              		.loc 1 202 0
 546 0076 6088     		ldrh	r0, [r4, #2]
 547 0078 FFF7FEFF 		bl	CyDelay
 548              	.LVL66:
 549 007c 10BD     		pop	{r4, pc}
 550              	.L39:
 551 007e 00BF     		.align	2
 552              	.L38:
 553 0080 00000000 		.word	.LANCHOR1
 554              		.cfi_endproc
 555              	.LFE73:
 556              		.size	driveForwardsFull, .-driveForwardsFull
 557              		.section	.text.driveForwardsWave,"ax",%progbits
 558              		.align	2
 559              		.global	driveForwardsWave
 560              		.thumb
 561              		.thumb_func
 562              		.type	driveForwardsWave, %function
 563              	driveForwardsWave:
 564              	.LFB74:
 203:functions.c   **** 
 204:functions.c   **** }
 205:functions.c   **** void driveForwardsWave() {
 565              		.loc 1 205 0
 566              		.cfi_startproc
 567              		@ args = 0, pretend = 0, frame = 0
 568              		@ frame_needed = 0, uses_anonymous_args = 0
 569 0000 10B5     		push	{r4, lr}
 570              		.cfi_def_cfa_offset 8
 571              		.cfi_offset 4, -8
 572              		.cfi_offset 14, -4
 206:functions.c   ****     A1_Green_Write(1);
 573              		.loc 1 206 0
 574 0002 0120     		movs	r0, #1
 575 0004 FFF7FEFF 		bl	A1_Green_Write
 576              	.LVL67:
 207:functions.c   ****     A2_Orange_Write(0);
 577              		.loc 1 207 0
 578 0008 0020     		movs	r0, #0
 579 000a FFF7FEFF 		bl	A2_Orange_Write
 580              	.LVL68:
 208:functions.c   ****     B1_Purple_Write(0);
 581              		.loc 1 208 0
 582 000e 0020     		movs	r0, #0
 583 0010 FFF7FEFF 		bl	B1_Purple_Write
 584              	.LVL69:
 209:functions.c   ****     B2_White_Write(0);
 585              		.loc 1 209 0
 586 0014 0020     		movs	r0, #0
 587 0016 FFF7FEFF 		bl	B2_White_Write
 588              	.LVL70:
 210:functions.c   ****     CyDelay(speedDelay);
ARM GAS  C:\Users\kaaen\AppData\Local\Temp\ccw3mBXt.s 			page 15


 589              		.loc 1 210 0
 590 001a 194C     		ldr	r4, .L42
 591 001c 6088     		ldrh	r0, [r4, #2]
 592 001e FFF7FEFF 		bl	CyDelay
 593              	.LVL71:
 211:functions.c   ****     
 212:functions.c   ****     A1_Green_Write(0);
 594              		.loc 1 212 0
 595 0022 0020     		movs	r0, #0
 596 0024 FFF7FEFF 		bl	A1_Green_Write
 597              	.LVL72:
 213:functions.c   ****     A2_Orange_Write(0);
 598              		.loc 1 213 0
 599 0028 0020     		movs	r0, #0
 600 002a FFF7FEFF 		bl	A2_Orange_Write
 601              	.LVL73:
 214:functions.c   ****     B1_Purple_Write(1);
 602              		.loc 1 214 0
 603 002e 0120     		movs	r0, #1
 604 0030 FFF7FEFF 		bl	B1_Purple_Write
 605              	.LVL74:
 215:functions.c   ****     B2_White_Write(0);
 606              		.loc 1 215 0
 607 0034 0020     		movs	r0, #0
 608 0036 FFF7FEFF 		bl	B2_White_Write
 609              	.LVL75:
 216:functions.c   ****     CyDelay(speedDelay);
 610              		.loc 1 216 0
 611 003a 6088     		ldrh	r0, [r4, #2]
 612 003c FFF7FEFF 		bl	CyDelay
 613              	.LVL76:
 217:functions.c   ****     
 218:functions.c   ****     A1_Green_Write(0);
 614              		.loc 1 218 0
 615 0040 0020     		movs	r0, #0
 616 0042 FFF7FEFF 		bl	A1_Green_Write
 617              	.LVL77:
 219:functions.c   ****     A2_Orange_Write(1);
 618              		.loc 1 219 0
 619 0046 0120     		movs	r0, #1
 620 0048 FFF7FEFF 		bl	A2_Orange_Write
 621              	.LVL78:
 220:functions.c   ****     B1_Purple_Write(0);
 622              		.loc 1 220 0
 623 004c 0020     		movs	r0, #0
 624 004e FFF7FEFF 		bl	B1_Purple_Write
 625              	.LVL79:
 221:functions.c   ****     B2_White_Write(0);
 626              		.loc 1 221 0
 627 0052 0020     		movs	r0, #0
 628 0054 FFF7FEFF 		bl	B2_White_Write
 629              	.LVL80:
 222:functions.c   ****     CyDelay(speedDelay);
 630              		.loc 1 222 0
 631 0058 6088     		ldrh	r0, [r4, #2]
 632 005a FFF7FEFF 		bl	CyDelay
 633              	.LVL81:
ARM GAS  C:\Users\kaaen\AppData\Local\Temp\ccw3mBXt.s 			page 16


 223:functions.c   ****     
 224:functions.c   ****     A1_Green_Write(0);
 634              		.loc 1 224 0
 635 005e 0020     		movs	r0, #0
 636 0060 FFF7FEFF 		bl	A1_Green_Write
 637              	.LVL82:
 225:functions.c   ****     A2_Orange_Write(0);
 638              		.loc 1 225 0
 639 0064 0020     		movs	r0, #0
 640 0066 FFF7FEFF 		bl	A2_Orange_Write
 641              	.LVL83:
 226:functions.c   ****     B1_Purple_Write(0);
 642              		.loc 1 226 0
 643 006a 0020     		movs	r0, #0
 644 006c FFF7FEFF 		bl	B1_Purple_Write
 645              	.LVL84:
 227:functions.c   ****     B2_White_Write(1);
 646              		.loc 1 227 0
 647 0070 0120     		movs	r0, #1
 648 0072 FFF7FEFF 		bl	B2_White_Write
 649              	.LVL85:
 228:functions.c   ****     CyDelay(speedDelay);
 650              		.loc 1 228 0
 651 0076 6088     		ldrh	r0, [r4, #2]
 652 0078 FFF7FEFF 		bl	CyDelay
 653              	.LVL86:
 654 007c 10BD     		pop	{r4, pc}
 655              	.L43:
 656 007e 00BF     		.align	2
 657              	.L42:
 658 0080 00000000 		.word	.LANCHOR1
 659              		.cfi_endproc
 660              	.LFE74:
 661              		.size	driveForwardsWave, .-driveForwardsWave
 662              		.section	.text.driveBackwardsHalf,"ax",%progbits
 663              		.align	2
 664              		.global	driveBackwardsHalf
 665              		.thumb
 666              		.thumb_func
 667              		.type	driveBackwardsHalf, %function
 668              	driveBackwardsHalf:
 669              	.LFB75:
 229:functions.c   **** }
 230:functions.c   **** 
 231:functions.c   **** void driveBackwardsHalf() {
 670              		.loc 1 231 0
 671              		.cfi_startproc
 672              		@ args = 0, pretend = 0, frame = 0
 673              		@ frame_needed = 0, uses_anonymous_args = 0
 674 0000 10B5     		push	{r4, lr}
 675              		.cfi_def_cfa_offset 8
 676              		.cfi_offset 4, -8
 677              		.cfi_offset 14, -4
 232:functions.c   ****     A1_Green_Write(1);
 678              		.loc 1 232 0
 679 0002 0120     		movs	r0, #1
 680 0004 FFF7FEFF 		bl	A1_Green_Write
ARM GAS  C:\Users\kaaen\AppData\Local\Temp\ccw3mBXt.s 			page 17


 681              	.LVL87:
 233:functions.c   ****     A2_Orange_Write(0);
 682              		.loc 1 233 0
 683 0008 0020     		movs	r0, #0
 684 000a FFF7FEFF 		bl	A2_Orange_Write
 685              	.LVL88:
 234:functions.c   ****     B1_Purple_Write(0);
 686              		.loc 1 234 0
 687 000e 0020     		movs	r0, #0
 688 0010 FFF7FEFF 		bl	B1_Purple_Write
 689              	.LVL89:
 235:functions.c   ****     B2_White_Write(0); 
 690              		.loc 1 235 0
 691 0014 0020     		movs	r0, #0
 692 0016 FFF7FEFF 		bl	B2_White_Write
 693              	.LVL90:
 236:functions.c   ****     CyDelay(speedDelay);  
 694              		.loc 1 236 0
 695 001a 374C     		ldr	r4, .L46
 696 001c 6088     		ldrh	r0, [r4, #2]
 697 001e FFF7FEFF 		bl	CyDelay
 698              	.LVL91:
 237:functions.c   ****     
 238:functions.c   ****     A1_Green_Write(1);
 699              		.loc 1 238 0
 700 0022 0120     		movs	r0, #1
 701 0024 FFF7FEFF 		bl	A1_Green_Write
 702              	.LVL92:
 239:functions.c   ****     A2_Orange_Write(0);
 703              		.loc 1 239 0
 704 0028 0020     		movs	r0, #0
 705 002a FFF7FEFF 		bl	A2_Orange_Write
 706              	.LVL93:
 240:functions.c   ****     B1_Purple_Write(0);
 707              		.loc 1 240 0
 708 002e 0020     		movs	r0, #0
 709 0030 FFF7FEFF 		bl	B1_Purple_Write
 710              	.LVL94:
 241:functions.c   ****     B2_White_Write(1); 
 711              		.loc 1 241 0
 712 0034 0120     		movs	r0, #1
 713 0036 FFF7FEFF 		bl	B2_White_Write
 714              	.LVL95:
 242:functions.c   ****     CyDelay(speedDelay);
 715              		.loc 1 242 0
 716 003a 6088     		ldrh	r0, [r4, #2]
 717 003c FFF7FEFF 		bl	CyDelay
 718              	.LVL96:
 243:functions.c   ****     
 244:functions.c   ****     A1_Green_Write(0);
 719              		.loc 1 244 0
 720 0040 0020     		movs	r0, #0
 721 0042 FFF7FEFF 		bl	A1_Green_Write
 722              	.LVL97:
 245:functions.c   ****     A2_Orange_Write(0);
 723              		.loc 1 245 0
 724 0046 0020     		movs	r0, #0
ARM GAS  C:\Users\kaaen\AppData\Local\Temp\ccw3mBXt.s 			page 18


 725 0048 FFF7FEFF 		bl	A2_Orange_Write
 726              	.LVL98:
 246:functions.c   ****     B1_Purple_Write(0);
 727              		.loc 1 246 0
 728 004c 0020     		movs	r0, #0
 729 004e FFF7FEFF 		bl	B1_Purple_Write
 730              	.LVL99:
 247:functions.c   ****     B2_White_Write(1); 
 731              		.loc 1 247 0
 732 0052 0120     		movs	r0, #1
 733 0054 FFF7FEFF 		bl	B2_White_Write
 734              	.LVL100:
 248:functions.c   ****     CyDelay(speedDelay);
 735              		.loc 1 248 0
 736 0058 6088     		ldrh	r0, [r4, #2]
 737 005a FFF7FEFF 		bl	CyDelay
 738              	.LVL101:
 249:functions.c   ****     
 250:functions.c   ****     A1_Green_Write(0);
 739              		.loc 1 250 0
 740 005e 0020     		movs	r0, #0
 741 0060 FFF7FEFF 		bl	A1_Green_Write
 742              	.LVL102:
 251:functions.c   ****     A2_Orange_Write(1);
 743              		.loc 1 251 0
 744 0064 0120     		movs	r0, #1
 745 0066 FFF7FEFF 		bl	A2_Orange_Write
 746              	.LVL103:
 252:functions.c   ****     B1_Purple_Write(0);
 747              		.loc 1 252 0
 748 006a 0020     		movs	r0, #0
 749 006c FFF7FEFF 		bl	B1_Purple_Write
 750              	.LVL104:
 253:functions.c   ****     B2_White_Write(1); 
 751              		.loc 1 253 0
 752 0070 0120     		movs	r0, #1
 753 0072 FFF7FEFF 		bl	B2_White_Write
 754              	.LVL105:
 254:functions.c   ****     CyDelay(speedDelay); 
 755              		.loc 1 254 0
 756 0076 6088     		ldrh	r0, [r4, #2]
 757 0078 FFF7FEFF 		bl	CyDelay
 758              	.LVL106:
 255:functions.c   ****     
 256:functions.c   ****     A1_Green_Write(0);
 759              		.loc 1 256 0
 760 007c 0020     		movs	r0, #0
 761 007e FFF7FEFF 		bl	A1_Green_Write
 762              	.LVL107:
 257:functions.c   ****     A2_Orange_Write(1);
 763              		.loc 1 257 0
 764 0082 0120     		movs	r0, #1
 765 0084 FFF7FEFF 		bl	A2_Orange_Write
 766              	.LVL108:
 258:functions.c   ****     B1_Purple_Write(0);
 767              		.loc 1 258 0
 768 0088 0020     		movs	r0, #0
ARM GAS  C:\Users\kaaen\AppData\Local\Temp\ccw3mBXt.s 			page 19


 769 008a FFF7FEFF 		bl	B1_Purple_Write
 770              	.LVL109:
 259:functions.c   ****     B2_White_Write(0); 
 771              		.loc 1 259 0
 772 008e 0020     		movs	r0, #0
 773 0090 FFF7FEFF 		bl	B2_White_Write
 774              	.LVL110:
 260:functions.c   ****     CyDelay(speedDelay); 
 775              		.loc 1 260 0
 776 0094 6088     		ldrh	r0, [r4, #2]
 777 0096 FFF7FEFF 		bl	CyDelay
 778              	.LVL111:
 261:functions.c   ****     
 262:functions.c   ****     A1_Green_Write(0);
 779              		.loc 1 262 0
 780 009a 0020     		movs	r0, #0
 781 009c FFF7FEFF 		bl	A1_Green_Write
 782              	.LVL112:
 263:functions.c   ****     A2_Orange_Write(1);
 783              		.loc 1 263 0
 784 00a0 0120     		movs	r0, #1
 785 00a2 FFF7FEFF 		bl	A2_Orange_Write
 786              	.LVL113:
 264:functions.c   ****     B1_Purple_Write(1);
 787              		.loc 1 264 0
 788 00a6 0120     		movs	r0, #1
 789 00a8 FFF7FEFF 		bl	B1_Purple_Write
 790              	.LVL114:
 265:functions.c   ****     B2_White_Write(0);
 791              		.loc 1 265 0
 792 00ac 0020     		movs	r0, #0
 793 00ae FFF7FEFF 		bl	B2_White_Write
 794              	.LVL115:
 266:functions.c   ****     CyDelay(speedDelay);
 795              		.loc 1 266 0
 796 00b2 6088     		ldrh	r0, [r4, #2]
 797 00b4 FFF7FEFF 		bl	CyDelay
 798              	.LVL116:
 267:functions.c   ****     
 268:functions.c   ****     A1_Green_Write(0);
 799              		.loc 1 268 0
 800 00b8 0020     		movs	r0, #0
 801 00ba FFF7FEFF 		bl	A1_Green_Write
 802              	.LVL117:
 269:functions.c   ****     A2_Orange_Write(1);
 803              		.loc 1 269 0
 804 00be 0120     		movs	r0, #1
 805 00c0 FFF7FEFF 		bl	A2_Orange_Write
 806              	.LVL118:
 270:functions.c   ****     B1_Purple_Write(0);
 807              		.loc 1 270 0
 808 00c4 0020     		movs	r0, #0
 809 00c6 FFF7FEFF 		bl	B1_Purple_Write
 810              	.LVL119:
 271:functions.c   ****     B2_White_Write(0);
 811              		.loc 1 271 0
 812 00ca 0020     		movs	r0, #0
ARM GAS  C:\Users\kaaen\AppData\Local\Temp\ccw3mBXt.s 			page 20


 813 00cc FFF7FEFF 		bl	B2_White_Write
 814              	.LVL120:
 272:functions.c   ****     CyDelay(speedDelay);
 815              		.loc 1 272 0
 816 00d0 6088     		ldrh	r0, [r4, #2]
 817 00d2 FFF7FEFF 		bl	CyDelay
 818              	.LVL121:
 273:functions.c   ****     
 274:functions.c   ****     A1_Green_Write(1);
 819              		.loc 1 274 0
 820 00d6 0120     		movs	r0, #1
 821 00d8 FFF7FEFF 		bl	A1_Green_Write
 822              	.LVL122:
 275:functions.c   ****     A2_Orange_Write(0);
 823              		.loc 1 275 0
 824 00dc 0020     		movs	r0, #0
 825 00de FFF7FEFF 		bl	A2_Orange_Write
 826              	.LVL123:
 276:functions.c   ****     B1_Purple_Write(1);
 827              		.loc 1 276 0
 828 00e2 0120     		movs	r0, #1
 829 00e4 FFF7FEFF 		bl	B1_Purple_Write
 830              	.LVL124:
 277:functions.c   ****     B2_White_Write(0);
 831              		.loc 1 277 0
 832 00e8 0020     		movs	r0, #0
 833 00ea FFF7FEFF 		bl	B2_White_Write
 834              	.LVL125:
 278:functions.c   ****     CyDelay(speedDelay);
 835              		.loc 1 278 0
 836 00ee 6088     		ldrh	r0, [r4, #2]
 837 00f0 FFF7FEFF 		bl	CyDelay
 838              	.LVL126:
 839 00f4 10BD     		pop	{r4, pc}
 840              	.L47:
 841 00f6 00BF     		.align	2
 842              	.L46:
 843 00f8 00000000 		.word	.LANCHOR1
 844              		.cfi_endproc
 845              	.LFE75:
 846              		.size	driveBackwardsHalf, .-driveBackwardsHalf
 847              		.section	.text.driveBackwardsFull,"ax",%progbits
 848              		.align	2
 849              		.global	driveBackwardsFull
 850              		.thumb
 851              		.thumb_func
 852              		.type	driveBackwardsFull, %function
 853              	driveBackwardsFull:
 854              	.LFB76:
 279:functions.c   **** }
 280:functions.c   **** void driveBackwardsFull() {
 855              		.loc 1 280 0
 856              		.cfi_startproc
 857              		@ args = 0, pretend = 0, frame = 0
 858              		@ frame_needed = 0, uses_anonymous_args = 0
 859 0000 10B5     		push	{r4, lr}
 860              		.cfi_def_cfa_offset 8
ARM GAS  C:\Users\kaaen\AppData\Local\Temp\ccw3mBXt.s 			page 21


 861              		.cfi_offset 4, -8
 862              		.cfi_offset 14, -4
 281:functions.c   ****     A1_Green_Write(1);
 863              		.loc 1 281 0
 864 0002 0120     		movs	r0, #1
 865 0004 FFF7FEFF 		bl	A1_Green_Write
 866              	.LVL127:
 282:functions.c   ****     A2_Orange_Write(0);
 867              		.loc 1 282 0
 868 0008 0020     		movs	r0, #0
 869 000a FFF7FEFF 		bl	A2_Orange_Write
 870              	.LVL128:
 283:functions.c   ****     B1_Purple_Write(0);
 871              		.loc 1 283 0
 872 000e 0020     		movs	r0, #0
 873 0010 FFF7FEFF 		bl	B1_Purple_Write
 874              	.LVL129:
 284:functions.c   ****     B2_White_Write(1);
 875              		.loc 1 284 0
 876 0014 0120     		movs	r0, #1
 877 0016 FFF7FEFF 		bl	B2_White_Write
 878              	.LVL130:
 285:functions.c   ****     CyDelay(speedDelay);
 879              		.loc 1 285 0
 880 001a 194C     		ldr	r4, .L50
 881 001c 6088     		ldrh	r0, [r4, #2]
 882 001e FFF7FEFF 		bl	CyDelay
 883              	.LVL131:
 286:functions.c   ****     
 287:functions.c   ****     A1_Green_Write(0);
 884              		.loc 1 287 0
 885 0022 0020     		movs	r0, #0
 886 0024 FFF7FEFF 		bl	A1_Green_Write
 887              	.LVL132:
 288:functions.c   ****     A2_Orange_Write(1);
 888              		.loc 1 288 0
 889 0028 0120     		movs	r0, #1
 890 002a FFF7FEFF 		bl	A2_Orange_Write
 891              	.LVL133:
 289:functions.c   ****     B1_Purple_Write(0);
 892              		.loc 1 289 0
 893 002e 0020     		movs	r0, #0
 894 0030 FFF7FEFF 		bl	B1_Purple_Write
 895              	.LVL134:
 290:functions.c   ****     B2_White_Write(1);
 896              		.loc 1 290 0
 897 0034 0120     		movs	r0, #1
 898 0036 FFF7FEFF 		bl	B2_White_Write
 899              	.LVL135:
 291:functions.c   ****     CyDelay(speedDelay);
 900              		.loc 1 291 0
 901 003a 6088     		ldrh	r0, [r4, #2]
 902 003c FFF7FEFF 		bl	CyDelay
 903              	.LVL136:
 292:functions.c   ****     
 293:functions.c   ****     A1_Green_Write(0);
 904              		.loc 1 293 0
ARM GAS  C:\Users\kaaen\AppData\Local\Temp\ccw3mBXt.s 			page 22


 905 0040 0020     		movs	r0, #0
 906 0042 FFF7FEFF 		bl	A1_Green_Write
 907              	.LVL137:
 294:functions.c   ****     A2_Orange_Write(1);
 908              		.loc 1 294 0
 909 0046 0120     		movs	r0, #1
 910 0048 FFF7FEFF 		bl	A2_Orange_Write
 911              	.LVL138:
 295:functions.c   ****     B1_Purple_Write(1);
 912              		.loc 1 295 0
 913 004c 0120     		movs	r0, #1
 914 004e FFF7FEFF 		bl	B1_Purple_Write
 915              	.LVL139:
 296:functions.c   ****     B2_White_Write(0);
 916              		.loc 1 296 0
 917 0052 0020     		movs	r0, #0
 918 0054 FFF7FEFF 		bl	B2_White_Write
 919              	.LVL140:
 297:functions.c   ****     CyDelay(speedDelay);
 920              		.loc 1 297 0
 921 0058 6088     		ldrh	r0, [r4, #2]
 922 005a FFF7FEFF 		bl	CyDelay
 923              	.LVL141:
 298:functions.c   ****     
 299:functions.c   ****     A1_Green_Write(1);
 924              		.loc 1 299 0
 925 005e 0120     		movs	r0, #1
 926 0060 FFF7FEFF 		bl	A1_Green_Write
 927              	.LVL142:
 300:functions.c   ****     A2_Orange_Write(0);
 928              		.loc 1 300 0
 929 0064 0020     		movs	r0, #0
 930 0066 FFF7FEFF 		bl	A2_Orange_Write
 931              	.LVL143:
 301:functions.c   ****     B1_Purple_Write(1);
 932              		.loc 1 301 0
 933 006a 0120     		movs	r0, #1
 934 006c FFF7FEFF 		bl	B1_Purple_Write
 935              	.LVL144:
 302:functions.c   ****     B2_White_Write(0);
 936              		.loc 1 302 0
 937 0070 0020     		movs	r0, #0
 938 0072 FFF7FEFF 		bl	B2_White_Write
 939              	.LVL145:
 303:functions.c   ****     CyDelay(speedDelay);
 940              		.loc 1 303 0
 941 0076 6088     		ldrh	r0, [r4, #2]
 942 0078 FFF7FEFF 		bl	CyDelay
 943              	.LVL146:
 944 007c 10BD     		pop	{r4, pc}
 945              	.L51:
 946 007e 00BF     		.align	2
 947              	.L50:
 948 0080 00000000 		.word	.LANCHOR1
 949              		.cfi_endproc
 950              	.LFE76:
 951              		.size	driveBackwardsFull, .-driveBackwardsFull
ARM GAS  C:\Users\kaaen\AppData\Local\Temp\ccw3mBXt.s 			page 23


 952              		.section	.text.driveBackwardsWave,"ax",%progbits
 953              		.align	2
 954              		.global	driveBackwardsWave
 955              		.thumb
 956              		.thumb_func
 957              		.type	driveBackwardsWave, %function
 958              	driveBackwardsWave:
 959              	.LFB77:
 304:functions.c   ****    
 305:functions.c   **** }
 306:functions.c   **** void driveBackwardsWave() {
 960              		.loc 1 306 0
 961              		.cfi_startproc
 962              		@ args = 0, pretend = 0, frame = 0
 963              		@ frame_needed = 0, uses_anonymous_args = 0
 964 0000 10B5     		push	{r4, lr}
 965              		.cfi_def_cfa_offset 8
 966              		.cfi_offset 4, -8
 967              		.cfi_offset 14, -4
 307:functions.c   **** 
 308:functions.c   ****     A1_Green_Write(0);
 968              		.loc 1 308 0
 969 0002 0020     		movs	r0, #0
 970 0004 FFF7FEFF 		bl	A1_Green_Write
 971              	.LVL147:
 309:functions.c   ****     A2_Orange_Write(0);
 972              		.loc 1 309 0
 973 0008 0020     		movs	r0, #0
 974 000a FFF7FEFF 		bl	A2_Orange_Write
 975              	.LVL148:
 310:functions.c   ****     B1_Purple_Write(0);
 976              		.loc 1 310 0
 977 000e 0020     		movs	r0, #0
 978 0010 FFF7FEFF 		bl	B1_Purple_Write
 979              	.LVL149:
 311:functions.c   ****     B2_White_Write(1);
 980              		.loc 1 311 0
 981 0014 0120     		movs	r0, #1
 982 0016 FFF7FEFF 		bl	B2_White_Write
 983              	.LVL150:
 312:functions.c   ****     CyDelay(speedDelay);
 984              		.loc 1 312 0
 985 001a 194C     		ldr	r4, .L54
 986 001c 6088     		ldrh	r0, [r4, #2]
 987 001e FFF7FEFF 		bl	CyDelay
 988              	.LVL151:
 313:functions.c   ****      
 314:functions.c   ****     A1_Green_Write(0);
 989              		.loc 1 314 0
 990 0022 0020     		movs	r0, #0
 991 0024 FFF7FEFF 		bl	A1_Green_Write
 992              	.LVL152:
 315:functions.c   ****     A2_Orange_Write(1);
 993              		.loc 1 315 0
 994 0028 0120     		movs	r0, #1
 995 002a FFF7FEFF 		bl	A2_Orange_Write
 996              	.LVL153:
ARM GAS  C:\Users\kaaen\AppData\Local\Temp\ccw3mBXt.s 			page 24


 316:functions.c   ****     B1_Purple_Write(0);
 997              		.loc 1 316 0
 998 002e 0020     		movs	r0, #0
 999 0030 FFF7FEFF 		bl	B1_Purple_Write
 1000              	.LVL154:
 317:functions.c   ****     B2_White_Write(0);
 1001              		.loc 1 317 0
 1002 0034 0020     		movs	r0, #0
 1003 0036 FFF7FEFF 		bl	B2_White_Write
 1004              	.LVL155:
 318:functions.c   ****     CyDelay(speedDelay);
 1005              		.loc 1 318 0
 1006 003a 6088     		ldrh	r0, [r4, #2]
 1007 003c FFF7FEFF 		bl	CyDelay
 1008              	.LVL156:
 319:functions.c   **** 
 320:functions.c   ****     A1_Green_Write(0);
 1009              		.loc 1 320 0
 1010 0040 0020     		movs	r0, #0
 1011 0042 FFF7FEFF 		bl	A1_Green_Write
 1012              	.LVL157:
 321:functions.c   ****     A2_Orange_Write(0);
 1013              		.loc 1 321 0
 1014 0046 0020     		movs	r0, #0
 1015 0048 FFF7FEFF 		bl	A2_Orange_Write
 1016              	.LVL158:
 322:functions.c   ****     B1_Purple_Write(1);
 1017              		.loc 1 322 0
 1018 004c 0120     		movs	r0, #1
 1019 004e FFF7FEFF 		bl	B1_Purple_Write
 1020              	.LVL159:
 323:functions.c   ****     B2_White_Write(0);
 1021              		.loc 1 323 0
 1022 0052 0020     		movs	r0, #0
 1023 0054 FFF7FEFF 		bl	B2_White_Write
 1024              	.LVL160:
 324:functions.c   ****     CyDelay(speedDelay);
 1025              		.loc 1 324 0
 1026 0058 6088     		ldrh	r0, [r4, #2]
 1027 005a FFF7FEFF 		bl	CyDelay
 1028              	.LVL161:
 325:functions.c   ****     
 326:functions.c   ****     A1_Green_Write(1);
 1029              		.loc 1 326 0
 1030 005e 0120     		movs	r0, #1
 1031 0060 FFF7FEFF 		bl	A1_Green_Write
 1032              	.LVL162:
 327:functions.c   ****     A2_Orange_Write(0);
 1033              		.loc 1 327 0
 1034 0064 0020     		movs	r0, #0
 1035 0066 FFF7FEFF 		bl	A2_Orange_Write
 1036              	.LVL163:
 328:functions.c   ****     B1_Purple_Write(0);
 1037              		.loc 1 328 0
 1038 006a 0020     		movs	r0, #0
 1039 006c FFF7FEFF 		bl	B1_Purple_Write
 1040              	.LVL164:
ARM GAS  C:\Users\kaaen\AppData\Local\Temp\ccw3mBXt.s 			page 25


 329:functions.c   ****     B2_White_Write(0);
 1041              		.loc 1 329 0
 1042 0070 0020     		movs	r0, #0
 1043 0072 FFF7FEFF 		bl	B2_White_Write
 1044              	.LVL165:
 330:functions.c   ****     CyDelay(speedDelay);
 1045              		.loc 1 330 0
 1046 0076 6088     		ldrh	r0, [r4, #2]
 1047 0078 FFF7FEFF 		bl	CyDelay
 1048              	.LVL166:
 1049 007c 10BD     		pop	{r4, pc}
 1050              	.L55:
 1051 007e 00BF     		.align	2
 1052              	.L54:
 1053 0080 00000000 		.word	.LANCHOR1
 1054              		.cfi_endproc
 1055              	.LFE77:
 1056              		.size	driveBackwardsWave, .-driveBackwardsWave
 1057              		.section	.text.runOnceForward,"ax",%progbits
 1058              		.align	2
 1059              		.global	runOnceForward
 1060              		.thumb
 1061              		.thumb_func
 1062              		.type	runOnceForward, %function
 1063              	runOnceForward:
 1064              	.LFB78:
 331:functions.c   **** 
 332:functions.c   **** }
 333:functions.c   **** 
 334:functions.c   **** void runOnceForward() {
 1065              		.loc 1 334 0
 1066              		.cfi_startproc
 1067              		@ args = 0, pretend = 0, frame = 0
 1068              		@ frame_needed = 0, uses_anonymous_args = 0
 1069 0000 10B5     		push	{r4, lr}
 1070              		.cfi_def_cfa_offset 8
 1071              		.cfi_offset 4, -8
 1072              		.cfi_offset 14, -4
 1073              	.LVL167:
 1074              	.LBB2:
 335:functions.c   ****     
 336:functions.c   ****     for (uint32_t i = 0; i < 12; i++){
 1075              		.loc 1 336 0
 1076 0002 0024     		movs	r4, #0
 1077 0004 10E0     		b	.L57
 1078              	.LVL168:
 1079              	.L62:
 337:functions.c   ****         switch(state) {
 1080              		.loc 1 337 0
 1081 0006 0B4B     		ldr	r3, .L64
 1082 0008 1B78     		ldrb	r3, [r3]	@ zero_extendqisi2
 1083 000a 022B     		cmp	r3, #2
 1084 000c 06D0     		beq	.L59
 1085 000e 032B     		cmp	r3, #3
 1086 0010 07D0     		beq	.L60
 1087 0012 012B     		cmp	r3, #1
 1088 0014 07D1     		bne	.L58
ARM GAS  C:\Users\kaaen\AppData\Local\Temp\ccw3mBXt.s 			page 26


 338:functions.c   ****             
 339:functions.c   ****             // Full step
 340:functions.c   ****             case 1 : 
 341:functions.c   ****             {
 342:functions.c   ****                 driveForwardsFull(); 
 1089              		.loc 1 342 0
 1090 0016 FFF7FEFF 		bl	driveForwardsFull
 1091              	.LVL169:
 343:functions.c   ****             }
 344:functions.c   ****             break;
 1092              		.loc 1 344 0
 1093 001a 04E0     		b	.L58
 1094              	.L59:
 345:functions.c   ****             
 346:functions.c   ****             // Half step
 347:functions.c   ****             case 2 : 
 348:functions.c   ****             {
 349:functions.c   ****                 driveForwardsHalf();
 1095              		.loc 1 349 0
 1096 001c FFF7FEFF 		bl	driveForwardsHalf
 1097              	.LVL170:
 350:functions.c   ****             }
 351:functions.c   ****             break;
 1098              		.loc 1 351 0
 1099 0020 01E0     		b	.L58
 1100              	.L60:
 352:functions.c   ****             
 353:functions.c   ****             // Wave step
 354:functions.c   ****             case 3 : 
 355:functions.c   ****             {
 356:functions.c   ****                 driveForwardsWave();
 1101              		.loc 1 356 0
 1102 0022 FFF7FEFF 		bl	driveForwardsWave
 1103              	.LVL171:
 1104              	.L58:
 336:functions.c   ****         switch(state) {
 1105              		.loc 1 336 0 discriminator 2
 1106 0026 0134     		adds	r4, r4, #1
 1107              	.LVL172:
 1108              	.L57:
 336:functions.c   ****         switch(state) {
 1109              		.loc 1 336 0 is_stmt 0 discriminator 1
 1110 0028 0B2C     		cmp	r4, #11
 1111 002a ECD9     		bls	.L62
 1112              	.LBE2:
 357:functions.c   ****             }
 358:functions.c   ****             break;
 359:functions.c   ****             
 360:functions.c   ****             default : 
 361:functions.c   ****             {
 362:functions.c   ****                 //Nothing
 363:functions.c   ****             }
 364:functions.c   ****             break;
 365:functions.c   ****         }     
 366:functions.c   ****     }
 367:functions.c   ****     
 368:functions.c   ****     
ARM GAS  C:\Users\kaaen\AppData\Local\Temp\ccw3mBXt.s 			page 27


 369:functions.c   ****     direction = 0; // Stop
 1113              		.loc 1 369 0 is_stmt 1
 1114 002c 0022     		movs	r2, #0
 1115 002e 024B     		ldr	r3, .L64+4
 1116 0030 1A70     		strb	r2, [r3]
 1117 0032 10BD     		pop	{r4, pc}
 1118              	.LVL173:
 1119              	.L65:
 1120              		.align	2
 1121              	.L64:
 1122 0034 00000000 		.word	.LANCHOR1
 1123 0038 00000000 		.word	.LANCHOR0
 1124              		.cfi_endproc
 1125              	.LFE78:
 1126              		.size	runOnceForward, .-runOnceForward
 1127              		.section	.text.runOnceBackwards,"ax",%progbits
 1128              		.align	2
 1129              		.global	runOnceBackwards
 1130              		.thumb
 1131              		.thumb_func
 1132              		.type	runOnceBackwards, %function
 1133              	runOnceBackwards:
 1134              	.LFB79:
 370:functions.c   **** }
 371:functions.c   **** void runOnceBackwards() {
 1135              		.loc 1 371 0
 1136              		.cfi_startproc
 1137              		@ args = 0, pretend = 0, frame = 0
 1138              		@ frame_needed = 0, uses_anonymous_args = 0
 1139 0000 10B5     		push	{r4, lr}
 1140              		.cfi_def_cfa_offset 8
 1141              		.cfi_offset 4, -8
 1142              		.cfi_offset 14, -4
 1143              	.LVL174:
 1144              	.LBB3:
 372:functions.c   ****     
 373:functions.c   ****     for (uint32_t i = 0; i < 12; i++){
 1145              		.loc 1 373 0
 1146 0002 0024     		movs	r4, #0
 1147 0004 10E0     		b	.L67
 1148              	.LVL175:
 1149              	.L72:
 374:functions.c   ****         switch(state) {
 1150              		.loc 1 374 0
 1151 0006 0B4B     		ldr	r3, .L74
 1152 0008 1B78     		ldrb	r3, [r3]	@ zero_extendqisi2
 1153 000a 022B     		cmp	r3, #2
 1154 000c 06D0     		beq	.L69
 1155 000e 032B     		cmp	r3, #3
 1156 0010 07D0     		beq	.L70
 1157 0012 012B     		cmp	r3, #1
 1158 0014 07D1     		bne	.L68
 375:functions.c   ****             // Full step
 376:functions.c   ****             case 1 : 
 377:functions.c   ****             {
 378:functions.c   ****                 driveBackwardsFull(); 
 1159              		.loc 1 378 0
ARM GAS  C:\Users\kaaen\AppData\Local\Temp\ccw3mBXt.s 			page 28


 1160 0016 FFF7FEFF 		bl	driveBackwardsFull
 1161              	.LVL176:
 379:functions.c   ****             }
 380:functions.c   ****             break;
 1162              		.loc 1 380 0
 1163 001a 04E0     		b	.L68
 1164              	.L69:
 381:functions.c   ****             
 382:functions.c   ****             // Half step
 383:functions.c   ****             case 2 : 
 384:functions.c   ****             {
 385:functions.c   ****                 driveBackwardsHalf();
 1165              		.loc 1 385 0
 1166 001c FFF7FEFF 		bl	driveBackwardsHalf
 1167              	.LVL177:
 386:functions.c   ****             }
 387:functions.c   ****             break;
 1168              		.loc 1 387 0
 1169 0020 01E0     		b	.L68
 1170              	.L70:
 388:functions.c   ****             
 389:functions.c   ****             // Wave step
 390:functions.c   ****             case 3 : 
 391:functions.c   ****             {
 392:functions.c   ****                 driveBackwardsWave();
 1171              		.loc 1 392 0
 1172 0022 FFF7FEFF 		bl	driveBackwardsWave
 1173              	.LVL178:
 1174              	.L68:
 373:functions.c   ****         switch(state) {
 1175              		.loc 1 373 0 discriminator 2
 1176 0026 0134     		adds	r4, r4, #1
 1177              	.LVL179:
 1178              	.L67:
 373:functions.c   ****         switch(state) {
 1179              		.loc 1 373 0 is_stmt 0 discriminator 1
 1180 0028 0B2C     		cmp	r4, #11
 1181 002a ECD9     		bls	.L72
 1182              	.LBE3:
 393:functions.c   ****             }
 394:functions.c   ****             break;
 395:functions.c   ****             
 396:functions.c   ****             default : 
 397:functions.c   ****             {
 398:functions.c   ****                 //Nothing
 399:functions.c   ****             }
 400:functions.c   ****             break;
 401:functions.c   ****         }     
 402:functions.c   ****     }
 403:functions.c   ****     direction = 0; // Stop    
 1183              		.loc 1 403 0 is_stmt 1
 1184 002c 0022     		movs	r2, #0
 1185 002e 024B     		ldr	r3, .L74+4
 1186 0030 1A70     		strb	r2, [r3]
 1187 0032 10BD     		pop	{r4, pc}
 1188              	.LVL180:
 1189              	.L75:
ARM GAS  C:\Users\kaaen\AppData\Local\Temp\ccw3mBXt.s 			page 29


 1190              		.align	2
 1191              	.L74:
 1192 0034 00000000 		.word	.LANCHOR1
 1193 0038 00000000 		.word	.LANCHOR0
 1194              		.cfi_endproc
 1195              	.LFE79:
 1196              		.size	runOnceBackwards, .-runOnceBackwards
 1197              		.section	.text.run,"ax",%progbits
 1198              		.align	2
 1199              		.global	run
 1200              		.thumb
 1201              		.thumb_func
 1202              		.type	run, %function
 1203              	run:
 1204              	.LFB65:
  16:functions.c   ****     switch(byte)
 1205              		.loc 1 16 0
 1206              		.cfi_startproc
 1207              		@ args = 0, pretend = 0, frame = 0
 1208              		@ frame_needed = 0, uses_anonymous_args = 0
 1209              	.LVL181:
 1210 0000 08B5     		push	{r3, lr}
 1211              		.cfi_def_cfa_offset 8
 1212              		.cfi_offset 3, -8
 1213              		.cfi_offset 14, -4
  17:functions.c   ****     {
 1214              		.loc 1 17 0
 1215 0002 3038     		subs	r0, r0, #48
 1216              	.LVL182:
 1217 0004 4728     		cmp	r0, #71
 1218 0006 45D8     		bhi	.L76
 1219 0008 DFE800F0 		tbb	[pc, r0]
 1220              	.L79:
 1221 000c 36       		.byte	(.L78-.L79)/2
 1222 000d 30       		.byte	(.L80-.L79)/2
 1223 000e 33       		.byte	(.L81-.L79)/2
 1224 000f 44       		.byte	(.L76-.L79)/2
 1225 0010 44       		.byte	(.L76-.L79)/2
 1226 0011 44       		.byte	(.L76-.L79)/2
 1227 0012 44       		.byte	(.L76-.L79)/2
 1228 0013 44       		.byte	(.L76-.L79)/2
 1229 0014 44       		.byte	(.L76-.L79)/2
 1230 0015 44       		.byte	(.L76-.L79)/2
 1231 0016 44       		.byte	(.L76-.L79)/2
 1232 0017 44       		.byte	(.L76-.L79)/2
 1233 0018 44       		.byte	(.L76-.L79)/2
 1234 0019 44       		.byte	(.L76-.L79)/2
 1235 001a 44       		.byte	(.L76-.L79)/2
 1236 001b 44       		.byte	(.L76-.L79)/2
 1237 001c 44       		.byte	(.L76-.L79)/2
 1238 001d 44       		.byte	(.L76-.L79)/2
 1239 001e 44       		.byte	(.L76-.L79)/2
 1240 001f 44       		.byte	(.L76-.L79)/2
 1241 0020 44       		.byte	(.L76-.L79)/2
 1242 0021 44       		.byte	(.L76-.L79)/2
 1243 0022 44       		.byte	(.L76-.L79)/2
 1244 0023 44       		.byte	(.L76-.L79)/2
ARM GAS  C:\Users\kaaen\AppData\Local\Temp\ccw3mBXt.s 			page 30


 1245 0024 44       		.byte	(.L76-.L79)/2
 1246 0025 44       		.byte	(.L76-.L79)/2
 1247 0026 44       		.byte	(.L76-.L79)/2
 1248 0027 44       		.byte	(.L76-.L79)/2
 1249 0028 44       		.byte	(.L76-.L79)/2
 1250 0029 44       		.byte	(.L76-.L79)/2
 1251 002a 44       		.byte	(.L76-.L79)/2
 1252 002b 44       		.byte	(.L76-.L79)/2
 1253 002c 44       		.byte	(.L76-.L79)/2
 1254 002d 44       		.byte	(.L76-.L79)/2
 1255 002e 44       		.byte	(.L76-.L79)/2
 1256 002f 44       		.byte	(.L76-.L79)/2
 1257 0030 44       		.byte	(.L76-.L79)/2
 1258 0031 44       		.byte	(.L76-.L79)/2
 1259 0032 44       		.byte	(.L76-.L79)/2
 1260 0033 44       		.byte	(.L76-.L79)/2
 1261 0034 44       		.byte	(.L76-.L79)/2
 1262 0035 44       		.byte	(.L76-.L79)/2
 1263 0036 44       		.byte	(.L76-.L79)/2
 1264 0037 44       		.byte	(.L76-.L79)/2
 1265 0038 44       		.byte	(.L76-.L79)/2
 1266 0039 44       		.byte	(.L76-.L79)/2
 1267 003a 44       		.byte	(.L76-.L79)/2
 1268 003b 44       		.byte	(.L76-.L79)/2
 1269 003c 44       		.byte	(.L76-.L79)/2
 1270 003d 39       		.byte	(.L82-.L79)/2
 1271 003e 44       		.byte	(.L76-.L79)/2
 1272 003f 44       		.byte	(.L76-.L79)/2
 1273 0040 41       		.byte	(.L83-.L79)/2
 1274 0041 2A       		.byte	(.L84-.L79)/2
 1275 0042 44       		.byte	(.L76-.L79)/2
 1276 0043 44       		.byte	(.L76-.L79)/2
 1277 0044 44       		.byte	(.L76-.L79)/2
 1278 0045 44       		.byte	(.L76-.L79)/2
 1279 0046 44       		.byte	(.L76-.L79)/2
 1280 0047 44       		.byte	(.L76-.L79)/2
 1281 0048 44       		.byte	(.L76-.L79)/2
 1282 0049 44       		.byte	(.L76-.L79)/2
 1283 004a 44       		.byte	(.L76-.L79)/2
 1284 004b 44       		.byte	(.L76-.L79)/2
 1285 004c 44       		.byte	(.L76-.L79)/2
 1286 004d 24       		.byte	(.L85-.L79)/2
 1287 004e 2D       		.byte	(.L86-.L79)/2
 1288 004f 3D       		.byte	(.L87-.L79)/2
 1289 0050 44       		.byte	(.L76-.L79)/2
 1290 0051 44       		.byte	(.L76-.L79)/2
 1291 0052 44       		.byte	(.L76-.L79)/2
 1292 0053 27       		.byte	(.L88-.L79)/2
 1293              		.p2align 1
 1294              	.L85:
  21:functions.c   ****         }
 1295              		.loc 1 21 0
 1296 0054 FFF7FEFF 		bl	decreaseSpeed
 1297              	.LVL183:
  23:functions.c   ****         case 'w' :
 1298              		.loc 1 23 0
 1299 0058 08BD     		pop	{r3, pc}
ARM GAS  C:\Users\kaaen\AppData\Local\Temp\ccw3mBXt.s 			page 31


 1300              	.L88:
  26:functions.c   ****         }
 1301              		.loc 1 26 0
 1302 005a FFF7FEFF 		bl	increaseSpeed
 1303              	.LVL184:
  28:functions.c   ****         
 1304              		.loc 1 28 0
 1305 005e 08BD     		pop	{r3, pc}
 1306              	.L84:
  32:functions.c   ****         }
 1307              		.loc 1 32 0
 1308 0060 FFF7FEFF 		bl	runOnceForward
 1309              	.LVL185:
  34:functions.c   ****         
 1310              		.loc 1 34 0
 1311 0064 08BD     		pop	{r3, pc}
 1312              	.L86:
  38:functions.c   ****         }
 1313              		.loc 1 38 0
 1314 0066 FFF7FEFF 		bl	runOnceBackwards
 1315              	.LVL186:
  40:functions.c   ****         
 1316              		.loc 1 40 0
 1317 006a 08BD     		pop	{r3, pc}
 1318              	.L80:
  44:functions.c   ****         }
 1319              		.loc 1 44 0
 1320 006c FFF7FEFF 		bl	driveForwards
 1321              	.LVL187:
  46:functions.c   ****         
 1322              		.loc 1 46 0
 1323 0070 08BD     		pop	{r3, pc}
 1324              	.L81:
  50:functions.c   ****         }
 1325              		.loc 1 50 0
 1326 0072 FFF7FEFF 		bl	driveBackwards
 1327              	.LVL188:
  52:functions.c   ****         
 1328              		.loc 1 52 0
 1329 0076 08BD     		pop	{r3, pc}
 1330              	.L78:
  56:functions.c   ****         }
 1331              		.loc 1 56 0
 1332 0078 FFF7FEFF 		bl	stop
 1333              	.LVL189:
  58:functions.c   ****         
 1334              		.loc 1 58 0
 1335 007c 08BD     		pop	{r3, pc}
 1336              	.L82:
  63:functions.c   ****         }
 1337              		.loc 1 63 0
 1338 007e 0120     		movs	r0, #1
 1339 0080 FFF7FEFF 		bl	changeState
 1340              	.LVL190:
  65:functions.c   ****         
 1341              		.loc 1 65 0
 1342 0084 08BD     		pop	{r3, pc}
ARM GAS  C:\Users\kaaen\AppData\Local\Temp\ccw3mBXt.s 			page 32


 1343              	.L87:
  70:functions.c   ****         }
 1344              		.loc 1 70 0
 1345 0086 0220     		movs	r0, #2
 1346 0088 FFF7FEFF 		bl	changeState
 1347              	.LVL191:
  72:functions.c   ****         
 1348              		.loc 1 72 0
 1349 008c 08BD     		pop	{r3, pc}
 1350              	.L83:
  77:functions.c   ****         }
 1351              		.loc 1 77 0
 1352 008e 0320     		movs	r0, #3
 1353 0090 FFF7FEFF 		bl	changeState
 1354              	.LVL192:
 1355              	.L76:
 1356 0094 08BD     		pop	{r3, pc}
 1357              		.cfi_endproc
 1358              	.LFE65:
 1359              		.size	run, .-run
 1360              		.global	direction
 1361              		.global	state
 1362              		.global	speedDelay
 1363 0096 00BF     		.data
 1364              		.align	1
 1365              		.set	.LANCHOR1,. + 0
 1366              		.type	state, %object
 1367              		.size	state, 1
 1368              	state:
 1369 0000 01       		.byte	1
 1370 0001 00       		.space	1
 1371              		.type	speedDelay, %object
 1372              		.size	speedDelay, 2
 1373              	speedDelay:
 1374 0002 1400     		.short	20
 1375              		.section	.rodata.str1.4,"aMS",%progbits,1
 1376              		.align	2
 1377              	.LC0:
 1378 0000 4D6F746F 		.ascii	"Motor cannot go slower\015\012\000"
 1378      72206361 
 1378      6E6E6F74 
 1378      20676F20 
 1378      736C6F77 
 1379 0019 000000   		.space	3
 1380              	.LC1:
 1381 001c 4D6F746F 		.ascii	"Motor cannot go faster\015\012\000"
 1381      72206361 
 1381      6E6E6F74 
 1381      20676F20 
 1381      66617374 
 1382              		.bss
 1383              		.set	.LANCHOR0,. + 0
 1384              		.type	direction, %object
 1385              		.size	direction, 1
 1386              	direction:
 1387 0000 00       		.space	1
 1388              		.text
ARM GAS  C:\Users\kaaen\AppData\Local\Temp\ccw3mBXt.s 			page 33


 1389              	.Letext0:
 1390              		.file 2 "c:\\program files (x86)\\cypress\\psoc creator\\4.4\\psoc creator\\import\\gnu\\arm\\5.4.
 1391              		.file 3 "c:\\program files (x86)\\cypress\\psoc creator\\4.4\\psoc creator\\import\\gnu\\arm\\5.4.
 1392              		.file 4 "Generated_Source\\PSoC5/core_cm3.h"
 1393              		.file 5 "Generated_Source\\PSoC5/UART_1.h"
 1394              		.file 6 "Generated_Source\\PSoC5/A1_Green.h"
 1395              		.file 7 "Generated_Source\\PSoC5/A2_Orange.h"
 1396              		.file 8 "Generated_Source\\PSoC5/B1_Purple.h"
 1397              		.file 9 "Generated_Source\\PSoC5/B2_White.h"
 1398              		.file 10 "Generated_Source\\PSoC5/CyLib.h"