ARM GAS  C:\Users\Thomas\AppData\Local\Temp\ccCPT3ui.s 			page 1


   1              		.syntax unified
   2              		.cpu cortex-m3
   3              		.fpu softvfp
   4              		.eabi_attribute 20, 1
   5              		.eabi_attribute 21, 1
   6              		.eabi_attribute 23, 3
   7              		.eabi_attribute 24, 1
   8              		.eabi_attribute 25, 1
   9              		.eabi_attribute 26, 1
  10              		.eabi_attribute 30, 1
  11              		.eabi_attribute 34, 1
  12              		.eabi_attribute 18, 4
  13              		.thumb
  14              		.syntax unified
  15              		.file	"functions.c"
  16              		.text
  17              	.Ltext0:
  18              		.cfi_sections	.debug_frame
  19              		.section	.text.decreaseSpeed,"ax",%progbits
  20              		.align	2
  21              		.global	decreaseSpeed
  22              		.thumb
  23              		.thumb_func
  24              		.type	decreaseSpeed, %function
  25              	decreaseSpeed:
  26              	.LFB0:
  27              		.file 1 "functions.c"
   1:functions.c   **** #include "functions.h"
   2:functions.c   **** #include <stdint.h>
   3:functions.c   **** 
   4:functions.c   **** uint8_t CURR_PWM = 0; // Gemmer PWM signalets værdi for at holde styr på dens nuværende værdi
   5:functions.c   **** uint8_t MAX_PWM = 100; // Sætter en øvre begrænsning på PWM signalet
   6:functions.c   **** uint8_t MIN_PWM = 0; // Sætter en nedre begrænsning på PWM signalet
   7:functions.c   **** 
   8:functions.c   **** void decreaseSpeed()
   9:functions.c   **** {
  28              		.loc 1 9 0
  29              		.cfi_startproc
  30              		@ args = 0, pretend = 0, frame = 0
  31              		@ frame_needed = 0, uses_anonymous_args = 0
  32 0000 08B5     		push	{r3, lr}
  33              		.cfi_def_cfa_offset 8
  34              		.cfi_offset 3, -8
  35              		.cfi_offset 14, -4
  10:functions.c   ****     UART_1_PutString("Decreasing speed\r\n");
  36              		.loc 1 10 0
  37 0002 0748     		ldr	r0, .L4
  38 0004 FFF7FEFF 		bl	UART_1_PutString
  39              	.LVL0:
  11:functions.c   ****     
  12:functions.c   ****     if (CURR_PWM > MIN_PWM)
  40              		.loc 1 12 0
  41 0008 064B     		ldr	r3, .L4+4
  42 000a 1878     		ldrb	r0, [r3]	@ zero_extendqisi2
  43 000c 5B78     		ldrb	r3, [r3, #1]	@ zero_extendqisi2
  44 000e 9842     		cmp	r0, r3
  45 0010 05D9     		bls	.L1
ARM GAS  C:\Users\Thomas\AppData\Local\Temp\ccCPT3ui.s 			page 2


  46              	.LBB2:
  13:functions.c   ****     {
  14:functions.c   ****         CURR_PWM -= 10; // Duty cyclen falder
  47              		.loc 1 14 0
  48 0012 0A38     		subs	r0, r0, #10
  49 0014 C0B2     		uxtb	r0, r0
  50 0016 034B     		ldr	r3, .L4+4
  51 0018 1870     		strb	r0, [r3]
  15:functions.c   ****         PWM_1_WriteCompare(CURR_PWM); // Sender værdien ud
  52              		.loc 1 15 0
  53 001a FFF7FEFF 		bl	PWM_1_WriteCompare
  54              	.LVL1:
  55              	.L1:
  56 001e 08BD     		pop	{r3, pc}
  57              	.L5:
  58              		.align	2
  59              	.L4:
  60 0020 00000000 		.word	.LC0
  61 0024 00000000 		.word	.LANCHOR0
  62              	.LBE2:
  63              		.cfi_endproc
  64              	.LFE0:
  65              		.size	decreaseSpeed, .-decreaseSpeed
  66              		.section	.text.increaseSpeed,"ax",%progbits
  67              		.align	2
  68              		.global	increaseSpeed
  69              		.thumb
  70              		.thumb_func
  71              		.type	increaseSpeed, %function
  72              	increaseSpeed:
  73              	.LFB1:
  16:functions.c   ****     }
  17:functions.c   **** }
  18:functions.c   **** 
  19:functions.c   **** void increaseSpeed()
  20:functions.c   **** {
  74              		.loc 1 20 0
  75              		.cfi_startproc
  76              		@ args = 0, pretend = 0, frame = 0
  77              		@ frame_needed = 0, uses_anonymous_args = 0
  78 0000 08B5     		push	{r3, lr}
  79              		.cfi_def_cfa_offset 8
  80              		.cfi_offset 3, -8
  81              		.cfi_offset 14, -4
  21:functions.c   ****     UART_1_PutString("Increasing speed\r\n");   
  82              		.loc 1 21 0
  83 0002 0848     		ldr	r0, .L9
  84 0004 FFF7FEFF 		bl	UART_1_PutString
  85              	.LVL2:
  22:functions.c   **** 
  23:functions.c   ****     if (CURR_PWM < MAX_PWM)
  86              		.loc 1 23 0
  87 0008 074B     		ldr	r3, .L9+4
  88 000a 1878     		ldrb	r0, [r3]	@ zero_extendqisi2
  89 000c 074B     		ldr	r3, .L9+8
  90 000e 1B78     		ldrb	r3, [r3]	@ zero_extendqisi2
  91 0010 9842     		cmp	r0, r3
ARM GAS  C:\Users\Thomas\AppData\Local\Temp\ccCPT3ui.s 			page 3


  92 0012 05D2     		bcs	.L6
  93              	.LBB3:
  24:functions.c   ****     {
  25:functions.c   ****         CURR_PWM += 10; // Duty cyclen stiger
  94              		.loc 1 25 0
  95 0014 0A30     		adds	r0, r0, #10
  96 0016 C0B2     		uxtb	r0, r0
  97 0018 034B     		ldr	r3, .L9+4
  98 001a 1870     		strb	r0, [r3]
  26:functions.c   ****         PWM_1_WriteCompare(CURR_PWM); // Sender værdien ud
  99              		.loc 1 26 0
 100 001c FFF7FEFF 		bl	PWM_1_WriteCompare
 101              	.LVL3:
 102              	.L6:
 103 0020 08BD     		pop	{r3, pc}
 104              	.L10:
 105 0022 00BF     		.align	2
 106              	.L9:
 107 0024 14000000 		.word	.LC1
 108 0028 00000000 		.word	.LANCHOR0
 109 002c 00000000 		.word	.LANCHOR1
 110              	.LBE3:
 111              		.cfi_endproc
 112              	.LFE1:
 113              		.size	increaseSpeed, .-increaseSpeed
 114              		.section	.text.driveForwards,"ax",%progbits
 115              		.align	2
 116              		.global	driveForwards
 117              		.thumb
 118              		.thumb_func
 119              		.type	driveForwards, %function
 120              	driveForwards:
 121              	.LFB2:
  27:functions.c   ****     }
  28:functions.c   **** }
  29:functions.c   **** 
  30:functions.c   **** void driveForwards()
  31:functions.c   **** {
 122              		.loc 1 31 0
 123              		.cfi_startproc
 124              		@ args = 0, pretend = 0, frame = 0
 125              		@ frame_needed = 0, uses_anonymous_args = 0
 126 0000 08B5     		push	{r3, lr}
 127              		.cfi_def_cfa_offset 8
 128              		.cfi_offset 3, -8
 129              		.cfi_offset 14, -4
  32:functions.c   ****     UART_1_PutString("Set direction: forwards\r\n");
 130              		.loc 1 32 0
 131 0002 0548     		ldr	r0, .L13
 132 0004 FFF7FEFF 		bl	UART_1_PutString
 133              	.LVL4:
  33:functions.c   ****     Pin1_Write(1); // Skriver til Pin1
 134              		.loc 1 33 0
 135 0008 0120     		movs	r0, #1
 136 000a FFF7FEFF 		bl	Pin1_Write
 137              	.LVL5:
  34:functions.c   ****     Pin2_Write(0); // Skriver til Pin2
ARM GAS  C:\Users\Thomas\AppData\Local\Temp\ccCPT3ui.s 			page 4


 138              		.loc 1 34 0
 139 000e 0020     		movs	r0, #0
 140 0010 FFF7FEFF 		bl	Pin2_Write
 141              	.LVL6:
 142 0014 08BD     		pop	{r3, pc}
 143              	.L14:
 144 0016 00BF     		.align	2
 145              	.L13:
 146 0018 28000000 		.word	.LC2
 147              		.cfi_endproc
 148              	.LFE2:
 149              		.size	driveForwards, .-driveForwards
 150              		.section	.text.driveBackwards,"ax",%progbits
 151              		.align	2
 152              		.global	driveBackwards
 153              		.thumb
 154              		.thumb_func
 155              		.type	driveBackwards, %function
 156              	driveBackwards:
 157              	.LFB3:
  35:functions.c   **** }
  36:functions.c   **** 
  37:functions.c   **** void driveBackwards()
  38:functions.c   **** {
 158              		.loc 1 38 0
 159              		.cfi_startproc
 160              		@ args = 0, pretend = 0, frame = 0
 161              		@ frame_needed = 0, uses_anonymous_args = 0
 162 0000 08B5     		push	{r3, lr}
 163              		.cfi_def_cfa_offset 8
 164              		.cfi_offset 3, -8
 165              		.cfi_offset 14, -4
  39:functions.c   ****     UART_1_PutString("Set direction: backwards\r\n");
 166              		.loc 1 39 0
 167 0002 0548     		ldr	r0, .L17
 168 0004 FFF7FEFF 		bl	UART_1_PutString
 169              	.LVL7:
  40:functions.c   ****     Pin1_Write(0); // Skriver til Pin1 
 170              		.loc 1 40 0
 171 0008 0020     		movs	r0, #0
 172 000a FFF7FEFF 		bl	Pin1_Write
 173              	.LVL8:
  41:functions.c   ****     Pin2_Write(1); // Skriver til Pin2
 174              		.loc 1 41 0
 175 000e 0120     		movs	r0, #1
 176 0010 FFF7FEFF 		bl	Pin2_Write
 177              	.LVL9:
 178 0014 08BD     		pop	{r3, pc}
 179              	.L18:
 180 0016 00BF     		.align	2
 181              	.L17:
 182 0018 44000000 		.word	.LC3
 183              		.cfi_endproc
 184              	.LFE3:
 185              		.size	driveBackwards, .-driveBackwards
 186              		.section	.text.stop,"ax",%progbits
 187              		.align	2
ARM GAS  C:\Users\Thomas\AppData\Local\Temp\ccCPT3ui.s 			page 5


 188              		.global	stop
 189              		.thumb
 190              		.thumb_func
 191              		.type	stop, %function
 192              	stop:
 193              	.LFB4:
  42:functions.c   **** }
  43:functions.c   **** 
  44:functions.c   **** void stop()
  45:functions.c   **** {
 194              		.loc 1 45 0
 195              		.cfi_startproc
 196              		@ args = 0, pretend = 0, frame = 0
 197              		@ frame_needed = 0, uses_anonymous_args = 0
 198 0000 08B5     		push	{r3, lr}
 199              		.cfi_def_cfa_offset 8
 200              		.cfi_offset 3, -8
 201              		.cfi_offset 14, -4
  46:functions.c   ****     UART_1_PutString("Stop\r\n");
 202              		.loc 1 46 0
 203 0002 0448     		ldr	r0, .L21
 204 0004 FFF7FEFF 		bl	UART_1_PutString
 205              	.LVL10:
  47:functions.c   ****     CURR_PWM = 0;
 206              		.loc 1 47 0
 207 0008 0020     		movs	r0, #0
 208 000a 034B     		ldr	r3, .L21+4
 209 000c 1870     		strb	r0, [r3]
  48:functions.c   ****     PWM_1_WriteCompare(CURR_PWM); // Når duty cyclen bliver 0, så stopper motoren
 210              		.loc 1 48 0
 211 000e FFF7FEFF 		bl	PWM_1_WriteCompare
 212              	.LVL11:
 213 0012 08BD     		pop	{r3, pc}
 214              	.L22:
 215              		.align	2
 216              	.L21:
 217 0014 60000000 		.word	.LC4
 218 0018 00000000 		.word	.LANCHOR0
 219              		.cfi_endproc
 220              	.LFE4:
 221              		.size	stop, .-stop
 222              		.global	MIN_PWM
 223              		.global	MAX_PWM
 224              		.global	CURR_PWM
 225              		.data
 226              		.set	.LANCHOR1,. + 0
 227              		.type	MAX_PWM, %object
 228              		.size	MAX_PWM, 1
 229              	MAX_PWM:
 230 0000 64       		.byte	100
 231              		.section	.rodata.str1.4,"aMS",%progbits,1
 232              		.align	2
 233              	.LC0:
 234 0000 44656372 		.ascii	"Decreasing speed\015\012\000"
 234      65617369 
 234      6E672073 
 234      70656564 
ARM GAS  C:\Users\Thomas\AppData\Local\Temp\ccCPT3ui.s 			page 6


 234      0D0A00
 235 0013 00       		.space	1
 236              	.LC1:
 237 0014 496E6372 		.ascii	"Increasing speed\015\012\000"
 237      65617369 
 237      6E672073 
 237      70656564 
 237      0D0A00
 238 0027 00       		.space	1
 239              	.LC2:
 240 0028 53657420 		.ascii	"Set direction: forwards\015\012\000"
 240      64697265 
 240      6374696F 
 240      6E3A2066 
 240      6F727761 
 241 0042 0000     		.space	2
 242              	.LC3:
 243 0044 53657420 		.ascii	"Set direction: backwards\015\012\000"
 243      64697265 
 243      6374696F 
 243      6E3A2062 
 243      61636B77 
 244 005f 00       		.space	1
 245              	.LC4:
 246 0060 53746F70 		.ascii	"Stop\015\012\000"
 246      0D0A00
 247              		.bss
 248              		.set	.LANCHOR0,. + 0
 249              		.type	CURR_PWM, %object
 250              		.size	CURR_PWM, 1
 251              	CURR_PWM:
 252 0000 00       		.space	1
 253              		.type	MIN_PWM, %object
 254              		.size	MIN_PWM, 1
 255              	MIN_PWM:
 256 0001 00       		.space	1
 257              		.text
 258              	.Letext0:
 259              		.file 2 "c:\\program files (x86)\\cypress\\psoc creator\\4.4\\psoc creator\\import\\gnu\\arm\\5.4.
 260              		.file 3 "c:\\program files (x86)\\cypress\\psoc creator\\4.4\\psoc creator\\import\\gnu\\arm\\5.4.