ARM GAS  C:\Users\kaaen\AppData\Local\Temp\ccMaj55l.s 			page 1


   1              		.syntax unified
   2              		.cpu cortex-m3
   3              		.fpu softvfp
   4              		.eabi_attribute 20, 1
   5              		.eabi_attribute 21, 1
   6              		.eabi_attribute 23, 3
   7              		.eabi_attribute 24, 1
   8              		.eabi_attribute 25, 1
   9              		.eabi_attribute 26, 1
  10              		.eabi_attribute 30, 1
  11              		.eabi_attribute 34, 1
  12              		.eabi_attribute 18, 4
  13              		.thumb
  14              		.syntax unified
  15              		.file	"main.c"
  16              		.text
  17              	.Ltext0:
  18              		.cfi_sections	.debug_frame
  19              		.section	.text.main,"ax",%progbits
  20              		.align	2
  21              		.global	main
  22              		.thumb
  23              		.thumb_func
  24              		.type	main, %function
  25              	main:
  26              	.LFB63:
  27              		.file 1 "main.c"
   1:main.c        **** /* ========================================
   2:main.c        ****  *
   3:main.c        ****  * Copyright YOUR COMPANY, THE YEAR
   4:main.c        ****  * All Rights Reserved
   5:main.c        ****  * UNPUBLISHED, LICENSED SOFTWARE.
   6:main.c        ****  *
   7:main.c        ****  * CONFIDENTIAL AND PROPRIETARY INFORMATION
   8:main.c        ****  * WHICH IS THE PROPERTY OF your company.
   9:main.c        ****  *
  10:main.c        ****  * ========================================
  11:main.c        **** */
  12:main.c        **** #include "project.h"
  13:main.c        **** #include <stdint.h>
  14:main.c        **** 
  15:main.c        **** CY_ISR_PROTO(ISR_UART_rx_handler);
  16:main.c        **** void handleByteReceived(uint8_t byteReceived);
  17:main.c        **** void decreaseSpeed(void);
  18:main.c        **** void increaseSpeed(void);
  19:main.c        **** void driveForwards(void);
  20:main.c        **** void driveBackwards(void);
  21:main.c        **** void stop(void);
  22:main.c        **** 
  23:main.c        **** uint8_t CURR_PWM = 0;
  24:main.c        **** uint8_t MAX_PWM = 100;
  25:main.c        **** uint8_t MIN_PWM = 0;
  26:main.c        **** 
  27:main.c        **** int main(void)
  28:main.c        **** {
  28              		.loc 1 28 0
  29              		.cfi_startproc
ARM GAS  C:\Users\kaaen\AppData\Local\Temp\ccMaj55l.s 			page 2


  30              		@ Volatile: function does not return.
  31              		@ args = 0, pretend = 0, frame = 0
  32              		@ frame_needed = 0, uses_anonymous_args = 0
  33 0000 08B5     		push	{r3, lr}
  34              		.cfi_def_cfa_offset 8
  35              		.cfi_offset 3, -8
  36              		.cfi_offset 14, -4
  29:main.c        ****     CyGlobalIntEnable; /* Enable global interrupts. */
  37              		.loc 1 29 0
  38              		.syntax unified
  39              	@ 29 "main.c" 1
  40 0002 62B6     		CPSIE   i
  41              	@ 0 "" 2
  30:main.c        ****     
  31:main.c        ****     /* Place your initialization/startup code here (e.g. MyInst_Start()) */
  32:main.c        ****     isr_uart_rx_StartEx(ISR_UART_rx_handler);
  42              		.loc 1 32 0
  43              		.thumb
  44              		.syntax unified
  45 0004 0C48     		ldr	r0, .L4
  46 0006 FFF7FEFF 		bl	isr_uart_rx_StartEx
  47              	.LVL0:
  33:main.c        ****     UART_1_Start();
  48              		.loc 1 33 0
  49 000a FFF7FEFF 		bl	UART_1_Start
  50              	.LVL1:
  34:main.c        ****     PWM_1_Start(); // Default value = 0;
  51              		.loc 1 34 0
  52 000e FFF7FEFF 		bl	PWM_1_Start
  53              	.LVL2:
  35:main.c        ****     
  36:main.c        ****     
  37:main.c        ****     UART_1_PutString("DC-Motor-PWM application started\r\n");
  54              		.loc 1 37 0
  55 0012 0A48     		ldr	r0, .L4+4
  56 0014 FFF7FEFF 		bl	UART_1_PutString
  57              	.LVL3:
  38:main.c        ****     UART_1_PutString("0: Stop\r\n");
  58              		.loc 1 38 0
  59 0018 0948     		ldr	r0, .L4+8
  60 001a FFF7FEFF 		bl	UART_1_PutString
  61              	.LVL4:
  39:main.c        ****     UART_1_PutString("1: Drive forwards\r\n");
  62              		.loc 1 39 0
  63 001e 0948     		ldr	r0, .L4+12
  64 0020 FFF7FEFF 		bl	UART_1_PutString
  65              	.LVL5:
  40:main.c        ****     UART_1_PutString("2: Drive backwards\r\n");
  66              		.loc 1 40 0
  67 0024 0848     		ldr	r0, .L4+16
  68 0026 FFF7FEFF 		bl	UART_1_PutString
  69              	.LVL6:
  41:main.c        ****     UART_1_PutString("q: Decrease speed\r\n");
  70              		.loc 1 41 0
  71 002a 0848     		ldr	r0, .L4+20
  72 002c FFF7FEFF 		bl	UART_1_PutString
  73              	.LVL7:
ARM GAS  C:\Users\kaaen\AppData\Local\Temp\ccMaj55l.s 			page 3


  42:main.c        ****     UART_1_PutString("w: Increase speed\r\n");
  74              		.loc 1 42 0
  75 0030 0748     		ldr	r0, .L4+24
  76 0032 FFF7FEFF 		bl	UART_1_PutString
  77              	.LVL8:
  78              	.L2:
  79 0036 FEE7     		b	.L2
  80              	.L5:
  81              		.align	2
  82              	.L4:
  83 0038 00000000 		.word	ISR_UART_rx_handler
  84 003c 00000000 		.word	.LC0
  85 0040 24000000 		.word	.LC1
  86 0044 30000000 		.word	.LC2
  87 0048 44000000 		.word	.LC3
  88 004c 5C000000 		.word	.LC4
  89 0050 70000000 		.word	.LC5
  90              		.cfi_endproc
  91              	.LFE63:
  92              		.size	main, .-main
  93              		.section	.text.decreaseSpeed,"ax",%progbits
  94              		.align	2
  95              		.global	decreaseSpeed
  96              		.thumb
  97              		.thumb_func
  98              		.type	decreaseSpeed, %function
  99              	decreaseSpeed:
 100              	.LFB66:
  43:main.c        **** 
  44:main.c        ****     for(;;)
  45:main.c        ****     {
  46:main.c        ****         /* Place your application code here. */
  47:main.c        ****     }
  48:main.c        **** }
  49:main.c        **** 
  50:main.c        **** CY_ISR(ISR_UART_rx_handler)
  51:main.c        **** {
  52:main.c        ****     uint8_t bytesToRead = UART_1_GetRxBufferSize();
  53:main.c        ****     while (bytesToRead > 0)
  54:main.c        ****     {
  55:main.c        ****         uint8_t byteReceived = UART_1_ReadRxData();
  56:main.c        ****         UART_1_WriteTxData(byteReceived); // echo back
  57:main.c        ****         
  58:main.c        ****         handleByteReceived(byteReceived);
  59:main.c        ****         
  60:main.c        ****         bytesToRead--;
  61:main.c        ****     }
  62:main.c        **** }
  63:main.c        **** 
  64:main.c        **** void handleByteReceived(uint8_t byteReceived)
  65:main.c        **** {
  66:main.c        ****     switch(byteReceived)
  67:main.c        ****     {
  68:main.c        ****         case 'q' :
  69:main.c        ****         {
  70:main.c        ****             decreaseSpeed();
  71:main.c        ****         }
ARM GAS  C:\Users\kaaen\AppData\Local\Temp\ccMaj55l.s 			page 4


  72:main.c        ****         break;
  73:main.c        ****         case 'w' :
  74:main.c        ****         {
  75:main.c        ****             increaseSpeed();
  76:main.c        ****         }
  77:main.c        ****         break;
  78:main.c        ****         case '1' :
  79:main.c        ****         {
  80:main.c        ****             driveForwards();
  81:main.c        ****         }
  82:main.c        ****         break;
  83:main.c        ****         case '2' :
  84:main.c        ****         {
  85:main.c        ****             driveBackwards();
  86:main.c        ****         }
  87:main.c        ****         break;
  88:main.c        ****         case '0' :
  89:main.c        ****         {
  90:main.c        ****             stop();
  91:main.c        ****             
  92:main.c        ****         }
  93:main.c        ****         break;
  94:main.c        ****         default :
  95:main.c        ****         {
  96:main.c        ****             // nothing
  97:main.c        ****         }
  98:main.c        ****         break;
  99:main.c        ****     }
 100:main.c        **** }
 101:main.c        **** 
 102:main.c        **** void decreaseSpeed()
 103:main.c        **** {
 101              		.loc 1 103 0
 102              		.cfi_startproc
 103              		@ args = 0, pretend = 0, frame = 0
 104              		@ frame_needed = 0, uses_anonymous_args = 0
 105 0000 08B5     		push	{r3, lr}
 106              		.cfi_def_cfa_offset 8
 107              		.cfi_offset 3, -8
 108              		.cfi_offset 14, -4
 104:main.c        ****     UART_1_PutString("Decreasing speed\r\n");
 109              		.loc 1 104 0
 110 0002 0748     		ldr	r0, .L9
 111 0004 FFF7FEFF 		bl	UART_1_PutString
 112              	.LVL9:
 105:main.c        ****     
 106:main.c        ****     if (CURR_PWM > MIN_PWM)
 113              		.loc 1 106 0
 114 0008 064B     		ldr	r3, .L9+4
 115 000a 1878     		ldrb	r0, [r3]	@ zero_extendqisi2
 116 000c 5B78     		ldrb	r3, [r3, #1]	@ zero_extendqisi2
 117 000e 9842     		cmp	r0, r3
 118 0010 05D9     		bls	.L6
 107:main.c        ****     {
 108:main.c        ****         CURR_PWM -= 10;
 119              		.loc 1 108 0
 120 0012 0A38     		subs	r0, r0, #10
ARM GAS  C:\Users\kaaen\AppData\Local\Temp\ccMaj55l.s 			page 5


 121 0014 C0B2     		uxtb	r0, r0
 122 0016 034B     		ldr	r3, .L9+4
 123 0018 1870     		strb	r0, [r3]
 109:main.c        ****         PWM_1_WriteCompare(CURR_PWM);
 124              		.loc 1 109 0
 125 001a FFF7FEFF 		bl	PWM_1_WriteCompare
 126              	.LVL10:
 127              	.L6:
 128 001e 08BD     		pop	{r3, pc}
 129              	.L10:
 130              		.align	2
 131              	.L9:
 132 0020 84000000 		.word	.LC6
 133 0024 00000000 		.word	.LANCHOR0
 134              		.cfi_endproc
 135              	.LFE66:
 136              		.size	decreaseSpeed, .-decreaseSpeed
 137              		.section	.text.increaseSpeed,"ax",%progbits
 138              		.align	2
 139              		.global	increaseSpeed
 140              		.thumb
 141              		.thumb_func
 142              		.type	increaseSpeed, %function
 143              	increaseSpeed:
 144              	.LFB67:
 110:main.c        ****     }
 111:main.c        **** }
 112:main.c        **** 
 113:main.c        **** void increaseSpeed()
 114:main.c        **** {
 145              		.loc 1 114 0
 146              		.cfi_startproc
 147              		@ args = 0, pretend = 0, frame = 0
 148              		@ frame_needed = 0, uses_anonymous_args = 0
 149 0000 08B5     		push	{r3, lr}
 150              		.cfi_def_cfa_offset 8
 151              		.cfi_offset 3, -8
 152              		.cfi_offset 14, -4
 115:main.c        ****     UART_1_PutString("Increasing speed\r\n");   
 153              		.loc 1 115 0
 154 0002 0848     		ldr	r0, .L14
 155 0004 FFF7FEFF 		bl	UART_1_PutString
 156              	.LVL11:
 116:main.c        **** 
 117:main.c        ****     if (CURR_PWM < MAX_PWM)
 157              		.loc 1 117 0
 158 0008 074B     		ldr	r3, .L14+4
 159 000a 1878     		ldrb	r0, [r3]	@ zero_extendqisi2
 160 000c 074B     		ldr	r3, .L14+8
 161 000e 1B78     		ldrb	r3, [r3]	@ zero_extendqisi2
 162 0010 9842     		cmp	r0, r3
 163 0012 05D2     		bcs	.L11
 118:main.c        ****     {
 119:main.c        ****         CURR_PWM += 10;
 164              		.loc 1 119 0
 165 0014 0A30     		adds	r0, r0, #10
 166 0016 C0B2     		uxtb	r0, r0
ARM GAS  C:\Users\kaaen\AppData\Local\Temp\ccMaj55l.s 			page 6


 167 0018 034B     		ldr	r3, .L14+4
 168 001a 1870     		strb	r0, [r3]
 120:main.c        ****         PWM_1_WriteCompare(CURR_PWM);
 169              		.loc 1 120 0
 170 001c FFF7FEFF 		bl	PWM_1_WriteCompare
 171              	.LVL12:
 172              	.L11:
 173 0020 08BD     		pop	{r3, pc}
 174              	.L15:
 175 0022 00BF     		.align	2
 176              	.L14:
 177 0024 98000000 		.word	.LC7
 178 0028 00000000 		.word	.LANCHOR0
 179 002c 00000000 		.word	.LANCHOR1
 180              		.cfi_endproc
 181              	.LFE67:
 182              		.size	increaseSpeed, .-increaseSpeed
 183              		.section	.text.driveForwards,"ax",%progbits
 184              		.align	2
 185              		.global	driveForwards
 186              		.thumb
 187              		.thumb_func
 188              		.type	driveForwards, %function
 189              	driveForwards:
 190              	.LFB68:
 121:main.c        ****     }
 122:main.c        **** }
 123:main.c        **** 
 124:main.c        **** void driveForwards()
 125:main.c        **** {
 191              		.loc 1 125 0
 192              		.cfi_startproc
 193              		@ args = 0, pretend = 0, frame = 0
 194              		@ frame_needed = 0, uses_anonymous_args = 0
 195 0000 08B5     		push	{r3, lr}
 196              		.cfi_def_cfa_offset 8
 197              		.cfi_offset 3, -8
 198              		.cfi_offset 14, -4
 126:main.c        ****     UART_1_PutString("Set direction: forwards\r\n");
 199              		.loc 1 126 0
 200 0002 0548     		ldr	r0, .L18
 201 0004 FFF7FEFF 		bl	UART_1_PutString
 202              	.LVL13:
 127:main.c        ****     Pin1_Write(1);
 203              		.loc 1 127 0
 204 0008 0120     		movs	r0, #1
 205 000a FFF7FEFF 		bl	Pin1_Write
 206              	.LVL14:
 128:main.c        ****     Pin2_Write(0);
 207              		.loc 1 128 0
 208 000e 0020     		movs	r0, #0
 209 0010 FFF7FEFF 		bl	Pin2_Write
 210              	.LVL15:
 211 0014 08BD     		pop	{r3, pc}
 212              	.L19:
 213 0016 00BF     		.align	2
 214              	.L18:
ARM GAS  C:\Users\kaaen\AppData\Local\Temp\ccMaj55l.s 			page 7


 215 0018 AC000000 		.word	.LC8
 216              		.cfi_endproc
 217              	.LFE68:
 218              		.size	driveForwards, .-driveForwards
 219              		.section	.text.driveBackwards,"ax",%progbits
 220              		.align	2
 221              		.global	driveBackwards
 222              		.thumb
 223              		.thumb_func
 224              		.type	driveBackwards, %function
 225              	driveBackwards:
 226              	.LFB69:
 129:main.c        **** }
 130:main.c        **** 
 131:main.c        **** void driveBackwards()
 132:main.c        **** {
 227              		.loc 1 132 0
 228              		.cfi_startproc
 229              		@ args = 0, pretend = 0, frame = 0
 230              		@ frame_needed = 0, uses_anonymous_args = 0
 231 0000 08B5     		push	{r3, lr}
 232              		.cfi_def_cfa_offset 8
 233              		.cfi_offset 3, -8
 234              		.cfi_offset 14, -4
 133:main.c        ****     UART_1_PutString("Set direction: backwards\r\n");
 235              		.loc 1 133 0
 236 0002 0548     		ldr	r0, .L22
 237 0004 FFF7FEFF 		bl	UART_1_PutString
 238              	.LVL16:
 134:main.c        ****     Pin1_Write(0);
 239              		.loc 1 134 0
 240 0008 0020     		movs	r0, #0
 241 000a FFF7FEFF 		bl	Pin1_Write
 242              	.LVL17:
 135:main.c        ****     Pin2_Write(1);
 243              		.loc 1 135 0
 244 000e 0120     		movs	r0, #1
 245 0010 FFF7FEFF 		bl	Pin2_Write
 246              	.LVL18:
 247 0014 08BD     		pop	{r3, pc}
 248              	.L23:
 249 0016 00BF     		.align	2
 250              	.L22:
 251 0018 C8000000 		.word	.LC9
 252              		.cfi_endproc
 253              	.LFE69:
 254              		.size	driveBackwards, .-driveBackwards
 255              		.section	.text.stop,"ax",%progbits
 256              		.align	2
 257              		.global	stop
 258              		.thumb
 259              		.thumb_func
 260              		.type	stop, %function
 261              	stop:
 262              	.LFB70:
 136:main.c        **** }
 137:main.c        **** 
ARM GAS  C:\Users\kaaen\AppData\Local\Temp\ccMaj55l.s 			page 8


 138:main.c        **** void stop()
 139:main.c        **** {
 263              		.loc 1 139 0
 264              		.cfi_startproc
 265              		@ args = 0, pretend = 0, frame = 0
 266              		@ frame_needed = 0, uses_anonymous_args = 0
 267 0000 08B5     		push	{r3, lr}
 268              		.cfi_def_cfa_offset 8
 269              		.cfi_offset 3, -8
 270              		.cfi_offset 14, -4
 140:main.c        ****     UART_1_PutString("Stop\r\n");
 271              		.loc 1 140 0
 272 0002 0448     		ldr	r0, .L26
 273 0004 FFF7FEFF 		bl	UART_1_PutString
 274              	.LVL19:
 141:main.c        ****     CURR_PWM = 0;
 275              		.loc 1 141 0
 276 0008 0020     		movs	r0, #0
 277 000a 034B     		ldr	r3, .L26+4
 278 000c 1870     		strb	r0, [r3]
 142:main.c        ****     PWM_1_WriteCompare(CURR_PWM);
 279              		.loc 1 142 0
 280 000e FFF7FEFF 		bl	PWM_1_WriteCompare
 281              	.LVL20:
 282 0012 08BD     		pop	{r3, pc}
 283              	.L27:
 284              		.align	2
 285              	.L26:
 286 0014 E4000000 		.word	.LC10
 287 0018 00000000 		.word	.LANCHOR0
 288              		.cfi_endproc
 289              	.LFE70:
 290              		.size	stop, .-stop
 291              		.section	.text.handleByteReceived,"ax",%progbits
 292              		.align	2
 293              		.global	handleByteReceived
 294              		.thumb
 295              		.thumb_func
 296              		.type	handleByteReceived, %function
 297              	handleByteReceived:
 298              	.LFB65:
  65:main.c        ****     switch(byteReceived)
 299              		.loc 1 65 0
 300              		.cfi_startproc
 301              		@ args = 0, pretend = 0, frame = 0
 302              		@ frame_needed = 0, uses_anonymous_args = 0
 303              	.LVL21:
 304 0000 08B5     		push	{r3, lr}
 305              		.cfi_def_cfa_offset 8
 306              		.cfi_offset 3, -8
 307              		.cfi_offset 14, -4
  66:main.c        ****     {
 308              		.loc 1 66 0
 309 0002 3228     		cmp	r0, #50
 310 0004 13D0     		beq	.L30
 311 0006 04D8     		bhi	.L31
 312 0008 3028     		cmp	r0, #48
ARM GAS  C:\Users\kaaen\AppData\Local\Temp\ccMaj55l.s 			page 9


 313 000a 13D0     		beq	.L32
 314 000c 3128     		cmp	r0, #49
 315 000e 0BD0     		beq	.L33
 316 0010 08BD     		pop	{r3, pc}
 317              	.L31:
 318 0012 7128     		cmp	r0, #113
 319 0014 02D0     		beq	.L34
 320 0016 7728     		cmp	r0, #119
 321 0018 03D0     		beq	.L35
 322 001a 08BD     		pop	{r3, pc}
 323              	.L34:
  70:main.c        ****         }
 324              		.loc 1 70 0
 325 001c FFF7FEFF 		bl	decreaseSpeed
 326              	.LVL22:
  72:main.c        ****         case 'w' :
 327              		.loc 1 72 0
 328 0020 08BD     		pop	{r3, pc}
 329              	.LVL23:
 330              	.L35:
  75:main.c        ****         }
 331              		.loc 1 75 0
 332 0022 FFF7FEFF 		bl	increaseSpeed
 333              	.LVL24:
  77:main.c        ****         case '1' :
 334              		.loc 1 77 0
 335 0026 08BD     		pop	{r3, pc}
 336              	.LVL25:
 337              	.L33:
  80:main.c        ****         }
 338              		.loc 1 80 0
 339 0028 FFF7FEFF 		bl	driveForwards
 340              	.LVL26:
  82:main.c        ****         case '2' :
 341              		.loc 1 82 0
 342 002c 08BD     		pop	{r3, pc}
 343              	.LVL27:
 344              	.L30:
  85:main.c        ****         }
 345              		.loc 1 85 0
 346 002e FFF7FEFF 		bl	driveBackwards
 347              	.LVL28:
  87:main.c        ****         case '0' :
 348              		.loc 1 87 0
 349 0032 08BD     		pop	{r3, pc}
 350              	.LVL29:
 351              	.L32:
  90:main.c        ****             
 352              		.loc 1 90 0
 353 0034 FFF7FEFF 		bl	stop
 354              	.LVL30:
 355 0038 08BD     		pop	{r3, pc}
 356              		.cfi_endproc
 357              	.LFE65:
 358              		.size	handleByteReceived, .-handleByteReceived
 359 003a 00BF     		.section	.text.ISR_UART_rx_handler,"ax",%progbits
 360              		.align	2
ARM GAS  C:\Users\kaaen\AppData\Local\Temp\ccMaj55l.s 			page 10


 361              		.global	ISR_UART_rx_handler
 362              		.thumb
 363              		.thumb_func
 364              		.type	ISR_UART_rx_handler, %function
 365              	ISR_UART_rx_handler:
 366              	.LFB64:
  51:main.c        ****     uint8_t bytesToRead = UART_1_GetRxBufferSize();
 367              		.loc 1 51 0
 368              		.cfi_startproc
 369              		@ args = 0, pretend = 0, frame = 0
 370              		@ frame_needed = 0, uses_anonymous_args = 0
 371 0000 38B5     		push	{r3, r4, r5, lr}
 372              		.cfi_def_cfa_offset 16
 373              		.cfi_offset 3, -16
 374              		.cfi_offset 4, -12
 375              		.cfi_offset 5, -8
 376              		.cfi_offset 14, -4
  52:main.c        ****     while (bytesToRead > 0)
 377              		.loc 1 52 0
 378 0002 FFF7FEFF 		bl	UART_1_GetRxBufferSize
 379              	.LVL31:
 380 0006 0446     		mov	r4, r0
 381              	.LVL32:
  53:main.c        ****     {
 382              		.loc 1 53 0
 383 0008 09E0     		b	.L38
 384              	.L39:
 385              	.LBB2:
  55:main.c        ****         UART_1_WriteTxData(byteReceived); // echo back
 386              		.loc 1 55 0
 387 000a FFF7FEFF 		bl	UART_1_ReadRxData
 388              	.LVL33:
 389 000e 0546     		mov	r5, r0
 390              	.LVL34:
  56:main.c        ****         
 391              		.loc 1 56 0
 392 0010 FFF7FEFF 		bl	UART_1_WriteTxData
 393              	.LVL35:
  58:main.c        ****         
 394              		.loc 1 58 0
 395 0014 2846     		mov	r0, r5
 396 0016 FFF7FEFF 		bl	handleByteReceived
 397              	.LVL36:
  60:main.c        ****     }
 398              		.loc 1 60 0
 399 001a 013C     		subs	r4, r4, #1
 400              	.LVL37:
 401 001c E4B2     		uxtb	r4, r4
 402              	.LVL38:
 403              	.L38:
 404              	.LBE2:
  53:main.c        ****     {
 405              		.loc 1 53 0
 406 001e 002C     		cmp	r4, #0
 407 0020 F3D1     		bne	.L39
  62:main.c        **** 
 408              		.loc 1 62 0
ARM GAS  C:\Users\kaaen\AppData\Local\Temp\ccMaj55l.s 			page 11


 409 0022 38BD     		pop	{r3, r4, r5, pc}
 410              		.cfi_endproc
 411              	.LFE64:
 412              		.size	ISR_UART_rx_handler, .-ISR_UART_rx_handler
 413              		.global	MIN_PWM
 414              		.global	MAX_PWM
 415              		.global	CURR_PWM
 416              		.data
 417              		.set	.LANCHOR1,. + 0
 418              		.type	MAX_PWM, %object
 419              		.size	MAX_PWM, 1
 420              	MAX_PWM:
 421 0000 64       		.byte	100
 422              		.section	.rodata.str1.4,"aMS",%progbits,1
 423              		.align	2
 424              	.LC0:
 425 0000 44432D4D 		.ascii	"DC-Motor-PWM application started\015\012\000"
 425      6F746F72 
 425      2D50574D 
 425      20617070 
 425      6C696361 
 426 0023 00       		.space	1
 427              	.LC1:
 428 0024 303A2053 		.ascii	"0: Stop\015\012\000"
 428      746F700D 
 428      0A00
 429 002e 0000     		.space	2
 430              	.LC2:
 431 0030 313A2044 		.ascii	"1: Drive forwards\015\012\000"
 431      72697665 
 431      20666F72 
 431      77617264 
 431      730D0A00 
 432              	.LC3:
 433 0044 323A2044 		.ascii	"2: Drive backwards\015\012\000"
 433      72697665 
 433      20626163 
 433      6B776172 
 433      64730D0A 
 434 0059 000000   		.space	3
 435              	.LC4:
 436 005c 713A2044 		.ascii	"q: Decrease speed\015\012\000"
 436      65637265 
 436      61736520 
 436      73706565 
 436      640D0A00 
 437              	.LC5:
 438 0070 773A2049 		.ascii	"w: Increase speed\015\012\000"
 438      6E637265 
 438      61736520 
 438      73706565 
 438      640D0A00 
 439              	.LC6:
 440 0084 44656372 		.ascii	"Decreasing speed\015\012\000"
 440      65617369 
 440      6E672073 
 440      70656564 
ARM GAS  C:\Users\kaaen\AppData\Local\Temp\ccMaj55l.s 			page 12


 440      0D0A00
 441 0097 00       		.space	1
 442              	.LC7:
 443 0098 496E6372 		.ascii	"Increasing speed\015\012\000"
 443      65617369 
 443      6E672073 
 443      70656564 
 443      0D0A00
 444 00ab 00       		.space	1
 445              	.LC8:
 446 00ac 53657420 		.ascii	"Set direction: forwards\015\012\000"
 446      64697265 
 446      6374696F 
 446      6E3A2066 
 446      6F727761 
 447 00c6 0000     		.space	2
 448              	.LC9:
 449 00c8 53657420 		.ascii	"Set direction: backwards\015\012\000"
 449      64697265 
 449      6374696F 
 449      6E3A2062 
 449      61636B77 
 450 00e3 00       		.space	1
 451              	.LC10:
 452 00e4 53746F70 		.ascii	"Stop\015\012\000"
 452      0D0A00
 453              		.bss
 454              		.set	.LANCHOR0,. + 0
 455              		.type	CURR_PWM, %object
 456              		.size	CURR_PWM, 1
 457              	CURR_PWM:
 458 0000 00       		.space	1
 459              		.type	MIN_PWM, %object
 460              		.size	MIN_PWM, 1
 461              	MIN_PWM:
 462 0001 00       		.space	1
 463              		.text
 464              	.Letext0:
 465              		.file 2 "c:\\program files (x86)\\cypress\\psoc creator\\4.4\\psoc creator\\import\\gnu\\arm\\5.4.
 466              		.file 3 "c:\\program files (x86)\\cypress\\psoc creator\\4.4\\psoc creator\\import\\gnu\\arm\\5.4.
 467              		.file 4 "Generated_Source\\PSoC5/core_cm3.h"
 468              		.file 5 "Generated_Source\\PSoC5/isr_uart_rx.h"
 469              		.file 6 "Generated_Source\\PSoC5/UART_1.h"
 470              		.file 7 "Generated_Source\\PSoC5/PWM_1.h"
 471              		.file 8 "Generated_Source\\PSoC5/Pin1.h"
 472              		.file 9 "Generated_Source\\PSoC5/Pin2.h"