ARM GAS  C:\Users\Thomas\AppData\Local\Temp\ccWE6s0A.s 			page 1


   1              		.syntax unified
   2              		.cpu cortex-m3
   3              		.fpu softvfp
   4              		.eabi_attribute 20, 1
   5              		.eabi_attribute 21, 1
   6              		.eabi_attribute 23, 3
   7              		.eabi_attribute 24, 1
   8              		.eabi_attribute 25, 1
   9              		.eabi_attribute 26, 1
  10              		.eabi_attribute 30, 1
  11              		.eabi_attribute 34, 1
  12              		.eabi_attribute 18, 4
  13              		.thumb
  14              		.syntax unified
  15              		.file	"main.c"
  16              		.text
  17              	.Ltext0:
  18              		.cfi_sections	.debug_frame
  19              		.section	.text.ISR_2_handler,"ax",%progbits
  20              		.align	2
  21              		.global	ISR_2_handler
  22              		.thumb
  23              		.thumb_func
  24              		.type	ISR_2_handler, %function
  25              	ISR_2_handler:
  26              	.LFB64:
  27              		.file 1 "main.c"
   1:main.c        **** #include "project.h"
   2:main.c        **** #include "functions.h"
   3:main.c        **** 
   4:main.c        **** CY_ISR_PROTO(ISR_2_handler); // Interrupt UART
   5:main.c        **** CY_ISR_PROTO(ISR_1_handler); // Interrupt SPIM
   6:main.c        **** 
   7:main.c        **** int main(void)
   8:main.c        **** {
   9:main.c        ****     CyGlobalIntEnable; /* Enable global interrupts. */
  10:main.c        ****     UART_1_Start(); // Start UART
  11:main.c        ****     SPIM_1_Start(); // Start Master / Slave
  12:main.c        ****     isr_2_StartEx(ISR_2_handler); // Knytter UART interrupts til funktionen ISR_2_handler
  13:main.c        ****     isr_1_StartEx(ISR_1_handler); // Knytter SPIM interrupts til funktionen ISR_1_handler
  14:main.c        ****     
  15:main.c        ****     for(;;) // Send og læs kontinuerligt
  16:main.c        ****     {
  17:main.c        ****             SPIM_1_WriteTxData(emptyData);
  18:main.c        ****             recievedData = SPIM_1_ReadRxData(); // Gem modtaget værdi
  19:main.c        ****     }
  20:main.c        **** }
  21:main.c        **** 
  22:main.c        **** CY_ISR(ISR_2_handler) // Håndterer tryk fra UART
  23:main.c        **** {
  28              		.loc 1 23 0
  29              		.cfi_startproc
  30              		@ args = 0, pretend = 0, frame = 0
  31              		@ frame_needed = 0, uses_anonymous_args = 0
  32 0000 38B5     		push	{r3, r4, r5, lr}
  33              		.cfi_def_cfa_offset 16
  34              		.cfi_offset 3, -16
ARM GAS  C:\Users\Thomas\AppData\Local\Temp\ccWE6s0A.s 			page 2


  35              		.cfi_offset 4, -12
  36              		.cfi_offset 5, -8
  37              		.cfi_offset 14, -4
  24:main.c        ****     uint8_t bytesToRead = UART_1_GetRxBufferSize();
  38              		.loc 1 24 0
  39 0002 FFF7FEFF 		bl	UART_1_GetRxBufferSize
  40              	.LVL0:
  41 0006 0446     		mov	r4, r0
  42              	.LVL1:
  25:main.c        ****     while (bytesToRead > 0)
  43              		.loc 1 25 0
  44 0008 09E0     		b	.L2
  45              	.L3:
  46              	.LBB2:
  26:main.c        ****     {
  27:main.c        ****         uint8_t byteReceived = UART_1_ReadRxData();
  47              		.loc 1 27 0
  48 000a FFF7FEFF 		bl	UART_1_ReadRxData
  49              	.LVL2:
  50 000e 0546     		mov	r5, r0
  51              	.LVL3:
  28:main.c        ****         UART_1_WriteTxData(byteReceived); // Udskriv tryk
  52              		.loc 1 28 0
  53 0010 FFF7FEFF 		bl	UART_1_WriteTxData
  54              	.LVL4:
  29:main.c        ****         handleByteReceived(byteReceived); // Send videre
  55              		.loc 1 29 0
  56 0014 2846     		mov	r0, r5
  57 0016 FFF7FEFF 		bl	handleByteReceived
  58              	.LVL5:
  30:main.c        ****         
  31:main.c        ****         bytesToRead--;
  59              		.loc 1 31 0
  60 001a 013C     		subs	r4, r4, #1
  61              	.LVL6:
  62 001c E4B2     		uxtb	r4, r4
  63              	.LVL7:
  64              	.L2:
  65              	.LBE2:
  25:main.c        ****     {
  66              		.loc 1 25 0
  67 001e 002C     		cmp	r4, #0
  68 0020 F3D1     		bne	.L3
  32:main.c        ****     }
  33:main.c        **** }
  69              		.loc 1 33 0
  70 0022 38BD     		pop	{r3, r4, r5, pc}
  71              		.cfi_endproc
  72              	.LFE64:
  73              		.size	ISR_2_handler, .-ISR_2_handler
  74              		.section	.text.ISR_1_handler,"ax",%progbits
  75              		.align	2
  76              		.global	ISR_1_handler
  77              		.thumb
  78              		.thumb_func
  79              		.type	ISR_1_handler, %function
  80              	ISR_1_handler:
ARM GAS  C:\Users\Thomas\AppData\Local\Temp\ccWE6s0A.s 			page 3


  81              	.LFB65:
  34:main.c        **** 
  35:main.c        **** 
  36:main.c        **** CY_ISR(ISR_1_handler) // Håndterer data modtaget fra Slaven
  37:main.c        **** {
  82              		.loc 1 37 0
  83              		.cfi_startproc
  84              		@ args = 0, pretend = 0, frame = 0
  85              		@ frame_needed = 0, uses_anonymous_args = 0
  86 0000 08B5     		push	{r3, lr}
  87              		.cfi_def_cfa_offset 8
  88              		.cfi_offset 3, -8
  89              		.cfi_offset 14, -4
  38:main.c        ****     if (recievedData == buttonData) // Hvis knappen er blevet trykket
  90              		.loc 1 38 0
  91 0002 054B     		ldr	r3, .L8
  92 0004 1A78     		ldrb	r2, [r3]	@ zero_extendqisi2
  93 0006 054B     		ldr	r3, .L8+4
  94 0008 1B78     		ldrb	r3, [r3]	@ zero_extendqisi2
  95 000a 9A42     		cmp	r2, r3
  96 000c 02D1     		bne	.L5
  39:main.c        ****        {
  40:main.c        ****            UART_1_PutString("The button has been pushed\r\n");
  97              		.loc 1 40 0
  98 000e 0448     		ldr	r0, .L8+8
  99 0010 FFF7FEFF 		bl	UART_1_PutString
 100              	.LVL8:
 101              	.L5:
 102 0014 08BD     		pop	{r3, pc}
 103              	.L9:
 104 0016 00BF     		.align	2
 105              	.L8:
 106 0018 00000000 		.word	recievedData
 107 001c 00000000 		.word	buttonData
 108 0020 00000000 		.word	.LC0
 109              		.cfi_endproc
 110              	.LFE65:
 111              		.size	ISR_1_handler, .-ISR_1_handler
 112              		.section	.text.main,"ax",%progbits
 113              		.align	2
 114              		.global	main
 115              		.thumb
 116              		.thumb_func
 117              		.type	main, %function
 118              	main:
 119              	.LFB63:
   8:main.c        ****     CyGlobalIntEnable; /* Enable global interrupts. */
 120              		.loc 1 8 0
 121              		.cfi_startproc
 122              		@ Volatile: function does not return.
 123              		@ args = 0, pretend = 0, frame = 0
 124              		@ frame_needed = 0, uses_anonymous_args = 0
 125 0000 08B5     		push	{r3, lr}
 126              		.cfi_def_cfa_offset 8
 127              		.cfi_offset 3, -8
 128              		.cfi_offset 14, -4
   9:main.c        ****     UART_1_Start(); // Start UART
ARM GAS  C:\Users\Thomas\AppData\Local\Temp\ccWE6s0A.s 			page 4


 129              		.loc 1 9 0
 130              		.syntax unified
 131              	@ 9 "main.c" 1
 132 0002 62B6     		CPSIE   i
 133              	@ 0 "" 2
  10:main.c        ****     SPIM_1_Start(); // Start Master / Slave
 134              		.loc 1 10 0
 135              		.thumb
 136              		.syntax unified
 137 0004 FFF7FEFF 		bl	UART_1_Start
 138              	.LVL9:
  11:main.c        ****     isr_2_StartEx(ISR_2_handler); // Knytter UART interrupts til funktionen ISR_2_handler
 139              		.loc 1 11 0
 140 0008 FFF7FEFF 		bl	SPIM_1_Start
 141              	.LVL10:
  12:main.c        ****     isr_1_StartEx(ISR_1_handler); // Knytter SPIM interrupts til funktionen ISR_1_handler
 142              		.loc 1 12 0
 143 000c 0748     		ldr	r0, .L13
 144 000e FFF7FEFF 		bl	isr_2_StartEx
 145              	.LVL11:
  13:main.c        ****     
 146              		.loc 1 13 0
 147 0012 0748     		ldr	r0, .L13+4
 148 0014 FFF7FEFF 		bl	isr_1_StartEx
 149              	.LVL12:
 150              	.L11:
  17:main.c        ****             recievedData = SPIM_1_ReadRxData(); // Gem modtaget værdi
 151              		.loc 1 17 0 discriminator 1
 152 0018 064B     		ldr	r3, .L13+8
 153 001a 1878     		ldrb	r0, [r3]	@ zero_extendqisi2
 154 001c FFF7FEFF 		bl	SPIM_1_WriteTxData
 155              	.LVL13:
  18:main.c        ****     }
 156              		.loc 1 18 0 discriminator 1
 157 0020 FFF7FEFF 		bl	SPIM_1_ReadRxData
 158              	.LVL14:
 159 0024 044B     		ldr	r3, .L13+12
 160 0026 1870     		strb	r0, [r3]
 161 0028 F6E7     		b	.L11
 162              	.L14:
 163 002a 00BF     		.align	2
 164              	.L13:
 165 002c 00000000 		.word	ISR_2_handler
 166 0030 00000000 		.word	ISR_1_handler
 167 0034 00000000 		.word	emptyData
 168 0038 00000000 		.word	recievedData
 169              		.cfi_endproc
 170              	.LFE63:
 171              		.size	main, .-main
 172              		.section	.rodata.str1.4,"aMS",%progbits,1
 173              		.align	2
 174              	.LC0:
 175 0000 54686520 		.ascii	"The button has been pushed\015\012\000"
 175      62757474 
 175      6F6E2068 
 175      61732062 
 175      65656E20 
ARM GAS  C:\Users\Thomas\AppData\Local\Temp\ccWE6s0A.s 			page 5


 176              		.text
 177              	.Letext0:
 178              		.file 2 "c:\\program files (x86)\\cypress\\psoc creator\\4.4\\psoc creator\\import\\gnu\\arm\\5.4.
 179              		.file 3 "c:\\program files (x86)\\cypress\\psoc creator\\4.4\\psoc creator\\import\\gnu\\arm\\5.4.
 180              		.file 4 "Generated_Source\\PSoC5/core_cm3.h"
 181              		.file 5 "functions.h"
 182              		.file 6 "Generated_Source\\PSoC5/UART_1.h"
 183              		.file 7 "Generated_Source\\PSoC5/SPIM_1.h"
 184              		.file 8 "Generated_Source\\PSoC5/isr_2.h"
 185              		.file 9 "Generated_Source\\PSoC5/isr_1.h"