ARM GAS  C:\Users\Bruger\AppData\Local\Temp\ccHC3E6b.s 			page 1


   1              		.syntax unified
   2              		.cpu cortex-m3
   3              		.fpu softvfp
   4              		.eabi_attribute 20, 1
   5              		.eabi_attribute 21, 1
   6              		.eabi_attribute 23, 3
   7              		.eabi_attribute 24, 1
   8              		.eabi_attribute 25, 1
   9              		.eabi_attribute 26, 1
  10              		.eabi_attribute 30, 1
  11              		.eabi_attribute 34, 1
  12              		.eabi_attribute 18, 4
  13              		.thumb
  14              		.syntax unified
  15              		.file	"main.c"
  16              		.text
  17              	.Ltext0:
  18              		.cfi_sections	.debug_frame
  19              		.section	.text.ISR_UART_rx_handler,"ax",%progbits
  20              		.align	2
  21              		.global	ISR_UART_rx_handler
  22              		.thumb
  23              		.thumb_func
  24              		.type	ISR_UART_rx_handler, %function
  25              	ISR_UART_rx_handler:
  26              	.LFB65:
  27              		.file 1 "main.c"
   1:main.c        **** /* ========================================
   2:main.c        ****  *
   3:main.c        ****  * Copyright YOUR COMPANY, THE YEAR
   4:main.c        ****  * All Rights Reserved
   5:main.c        ****  * UNPUBLISHED, LICENSED SOFTWARE.
   6:main.c        ****  *
   7:main.c        ****  * CONFIDENTIAL AND PROPRIETARY INFORMATION
   8:main.c        ****  * WHICH IS THE PROPERTY OF your company.
   9:main.c        ****  *
  10:main.c        ****  * ========================================
  11:main.c        **** */
  12:main.c        **** #include "project.h"
  13:main.c        **** #include <stdio.h>
  14:main.c        **** 
  15:main.c        **** CY_ISR_PROTO(ISR_UART_rx_handler);
  16:main.c        **** void handleByteReceived(uint8_t byteReceived);
  17:main.c        **** void writeToUART(float temp);
  18:main.c        **** float calculateKg(float numb);
  19:main.c        **** 
  20:main.c        **** int main(void)
  21:main.c        **** {
  22:main.c        ****     CyGlobalIntEnable; /* Enable global interrupts. */
  23:main.c        ****     char uartBuffer[256];
  24:main.c        **** 
  25:main.c        ****     /* Place your initialization/startup code here (e.g. MyInst_Start()) */
  26:main.c        ****     isr_uart_rx_StartEx(ISR_UART_rx_handler);
  27:main.c        ****     UART_1_Start();
  28:main.c        ****     ADC_SAR_1_Start();
  29:main.c        ****     ADC_SAR_1_StartConvert();
  30:main.c        ****     
ARM GAS  C:\Users\Bruger\AppData\Local\Temp\ccHC3E6b.s 			page 2


  31:main.c        ****     
  32:main.c        ****     
  33:main.c        ****     UART_1_PutString("Scale application started\r\n");
  34:main.c        **** 
  35:main.c        ****     for(;;)
  36:main.c        ****     {
  37:main.c        ****         /* Place your application code here. */
  38:main.c        ****         if (ADC_SAR_1_IsEndConversion(ADC_SAR_1_WAIT_FOR_RESULT))
  39:main.c        ****         {
  40:main.c        ****            // float result =(float)(ADC_SAR_1_GetResult16());
  41:main.c        ****             //writeToUART(calculateKg(result));
  42:main.c        ****             
  43:main.c        ****             uint8_t result = (ADC_SAR_1_GetResult16());
  44:main.c        ****             snprintf(uartBuffer, sizeof(uartBuffer), "ADC result: %f \r\n", result);
  45:main.c        ****             UART_1_PutString(uartBuffer);
  46:main.c        ****         }
  47:main.c        ****         CyDelay(1000);
  48:main.c        ****     }
  49:main.c        **** }
  50:main.c        **** 
  51:main.c        **** CY_ISR(ISR_UART_rx_handler)
  52:main.c        **** {
  28              		.loc 1 52 0
  29              		.cfi_startproc
  30              		@ args = 0, pretend = 0, frame = 0
  31              		@ frame_needed = 0, uses_anonymous_args = 0
  32 0000 10B5     		push	{r4, lr}
  33              		.cfi_def_cfa_offset 8
  34              		.cfi_offset 4, -8
  35              		.cfi_offset 14, -4
  53:main.c        ****     uint8_t bytesToRead = UART_1_GetRxBufferSize();
  36              		.loc 1 53 0
  37 0002 FFF7FEFF 		bl	UART_1_GetRxBufferSize
  38              	.LVL0:
  39 0006 0446     		mov	r4, r0
  40              	.LVL1:
  54:main.c        ****     while (bytesToRead > 0)
  41              		.loc 1 54 0
  42 0008 05E0     		b	.L2
  43              	.L3:
  44              	.LBB2:
  55:main.c        ****     {
  56:main.c        ****         uint8_t byteReceived = UART_1_ReadRxData();
  45              		.loc 1 56 0
  46 000a FFF7FEFF 		bl	UART_1_ReadRxData
  47              	.LVL2:
  57:main.c        ****         UART_1_WriteTxData(byteReceived); // echo back
  48              		.loc 1 57 0
  49 000e FFF7FEFF 		bl	UART_1_WriteTxData
  50              	.LVL3:
  58:main.c        ****         
  59:main.c        ****         handleByteReceived(byteReceived);
  60:main.c        ****         
  61:main.c        ****         bytesToRead--;
  51              		.loc 1 61 0
  52 0012 013C     		subs	r4, r4, #1
  53              	.LVL4:
ARM GAS  C:\Users\Bruger\AppData\Local\Temp\ccHC3E6b.s 			page 3


  54 0014 E4B2     		uxtb	r4, r4
  55              	.LVL5:
  56              	.L2:
  57              	.LBE2:
  54:main.c        ****     {
  58              		.loc 1 54 0
  59 0016 002C     		cmp	r4, #0
  60 0018 F7D1     		bne	.L3
  62:main.c        ****     }
  63:main.c        **** }
  61              		.loc 1 63 0
  62 001a 10BD     		pop	{r4, pc}
  63              		.cfi_endproc
  64              	.LFE65:
  65              		.size	ISR_UART_rx_handler, .-ISR_UART_rx_handler
  66              		.section	.text.main,"ax",%progbits
  67              		.align	2
  68              		.global	main
  69              		.thumb
  70              		.thumb_func
  71              		.type	main, %function
  72              	main:
  73              	.LFB64:
  21:main.c        ****     CyGlobalIntEnable; /* Enable global interrupts. */
  74              		.loc 1 21 0
  75              		.cfi_startproc
  76              		@ args = 0, pretend = 0, frame = 256
  77              		@ frame_needed = 0, uses_anonymous_args = 0
  78 0000 00B5     		push	{lr}
  79              		.cfi_def_cfa_offset 4
  80              		.cfi_offset 14, -4
  81 0002 C1B0     		sub	sp, sp, #260
  82              		.cfi_def_cfa_offset 264
  22:main.c        ****     char uartBuffer[256];
  83              		.loc 1 22 0
  84              		.syntax unified
  85              	@ 22 "main.c" 1
  86 0004 62B6     		CPSIE   i
  87              	@ 0 "" 2
  26:main.c        ****     UART_1_Start();
  88              		.loc 1 26 0
  89              		.thumb
  90              		.syntax unified
  91 0006 1048     		ldr	r0, .L9
  92 0008 FFF7FEFF 		bl	isr_uart_rx_StartEx
  93              	.LVL6:
  27:main.c        ****     ADC_SAR_1_Start();
  94              		.loc 1 27 0
  95 000c FFF7FEFF 		bl	UART_1_Start
  96              	.LVL7:
  28:main.c        ****     ADC_SAR_1_StartConvert();
  97              		.loc 1 28 0
  98 0010 FFF7FEFF 		bl	ADC_SAR_1_Start
  99              	.LVL8:
  29:main.c        ****     
 100              		.loc 1 29 0
 101 0014 FFF7FEFF 		bl	ADC_SAR_1_StartConvert
ARM GAS  C:\Users\Bruger\AppData\Local\Temp\ccHC3E6b.s 			page 4


 102              	.LVL9:
  33:main.c        **** 
 103              		.loc 1 33 0
 104 0018 0C48     		ldr	r0, .L9+4
 105 001a FFF7FEFF 		bl	UART_1_PutString
 106              	.LVL10:
 107              	.L7:
  38:main.c        ****         {
 108              		.loc 1 38 0
 109 001e 0020     		movs	r0, #0
 110 0020 FFF7FEFF 		bl	ADC_SAR_1_IsEndConversion
 111              	.LVL11:
 112 0024 58B1     		cbz	r0, .L6
 113              	.LBB3:
  43:main.c        ****             snprintf(uartBuffer, sizeof(uartBuffer), "ADC result: %f \r\n", result);
 114              		.loc 1 43 0
 115 0026 FFF7FEFF 		bl	ADC_SAR_1_GetResult16
 116              	.LVL12:
  44:main.c        ****             UART_1_PutString(uartBuffer);
 117              		.loc 1 44 0
 118 002a C3B2     		uxtb	r3, r0
 119 002c 084A     		ldr	r2, .L9+8
 120 002e 4FF48071 		mov	r1, #256
 121 0032 6846     		mov	r0, sp
 122              	.LVL13:
 123 0034 FFF7FEFF 		bl	snprintf
 124              	.LVL14:
  45:main.c        ****         }
 125              		.loc 1 45 0
 126 0038 6846     		mov	r0, sp
 127 003a FFF7FEFF 		bl	UART_1_PutString
 128              	.LVL15:
 129              	.L6:
 130              	.LBE3:
  47:main.c        ****     }
 131              		.loc 1 47 0
 132 003e 4FF47A70 		mov	r0, #1000
 133 0042 FFF7FEFF 		bl	CyDelay
 134              	.LVL16:
  48:main.c        **** }
 135              		.loc 1 48 0
 136 0046 EAE7     		b	.L7
 137              	.L10:
 138              		.align	2
 139              	.L9:
 140 0048 00000000 		.word	ISR_UART_rx_handler
 141 004c 00000000 		.word	.LC0
 142 0050 1C000000 		.word	.LC1
 143              		.cfi_endproc
 144              	.LFE64:
 145              		.size	main, .-main
 146              		.global	__aeabi_f2d
 147              		.global	__aeabi_dmul
 148              		.global	__aeabi_dsub
 149              		.global	__aeabi_ddiv
 150              		.global	__aeabi_d2f
 151              		.section	.text.calculateKg,"ax",%progbits
ARM GAS  C:\Users\Bruger\AppData\Local\Temp\ccHC3E6b.s 			page 5


 152              		.align	2
 153              		.global	calculateKg
 154              		.thumb
 155              		.thumb_func
 156              		.type	calculateKg, %function
 157              	calculateKg:
 158              	.LFB66:
  64:main.c        **** 
  65:main.c        **** float calculateKg(float numb) {
 159              		.loc 1 65 0
 160              		.cfi_startproc
 161              		@ args = 0, pretend = 0, frame = 0
 162              		@ frame_needed = 0, uses_anonymous_args = 0
 163              	.LVL17:
 164 0000 08B5     		push	{r3, lr}
 165              		.cfi_def_cfa_offset 8
 166              		.cfi_offset 3, -8
 167              		.cfi_offset 14, -4
  66:main.c        ****     
  67:main.c        ****     return (numb*0.84495-846.895)/1000;
 168              		.loc 1 67 0
 169 0002 FFF7FEFF 		bl	__aeabi_f2d
 170              	.LVL18:
 171 0006 08A3     		adr	r3, .L13
 172 0008 D3E90023 		ldrd	r2, [r3]
 173 000c FFF7FEFF 		bl	__aeabi_dmul
 174              	.LVL19:
 175 0010 07A3     		adr	r3, .L13+8
 176 0012 D3E90023 		ldrd	r2, [r3]
 177 0016 FFF7FEFF 		bl	__aeabi_dsub
 178              	.LVL20:
 179 001a 0022     		movs	r2, #0
 180 001c 064B     		ldr	r3, .L13+16
 181 001e FFF7FEFF 		bl	__aeabi_ddiv
 182              	.LVL21:
 183 0022 FFF7FEFF 		bl	__aeabi_d2f
 184              	.LVL22:
  68:main.c        ****     
  69:main.c        **** }
 185              		.loc 1 69 0
 186 0026 08BD     		pop	{r3, pc}
 187              	.L14:
 188              		.align	3
 189              	.L13:
 190 0028 992A1895 		.word	-1793578343
 191 002c D409EB3F 		.word	1072368084
 192 0030 5C8FC2F5 		.word	-171798692
 193 0034 28778A40 		.word	1082816296
 194 0038 00408F40 		.word	1083129856
 195              		.cfi_endproc
 196              	.LFE66:
 197              		.size	calculateKg, .-calculateKg
 198              		.section	.text.handleByteReceived,"ax",%progbits
 199              		.align	2
 200              		.global	handleByteReceived
 201              		.thumb
 202              		.thumb_func
ARM GAS  C:\Users\Bruger\AppData\Local\Temp\ccHC3E6b.s 			page 6


 203              		.type	handleByteReceived, %function
 204              	handleByteReceived:
 205              	.LFB67:
  70:main.c        **** 
  71:main.c        **** void handleByteReceived(uint8_t byteReceived)
  72:main.c        **** {
 206              		.loc 1 72 0
 207              		.cfi_startproc
 208              		@ args = 0, pretend = 0, frame = 0
 209              		@ frame_needed = 0, uses_anonymous_args = 0
 210              		@ link register save eliminated.
 211              	.LVL23:
 212 0000 7047     		bx	lr
 213              		.cfi_endproc
 214              	.LFE67:
 215              		.size	handleByteReceived, .-handleByteReceived
 216 0002 00BF     		.section	.text.writeToUART,"ax",%progbits
 217              		.align	2
 218              		.global	writeToUART
 219              		.thumb
 220              		.thumb_func
 221              		.type	writeToUART, %function
 222              	writeToUART:
 223              	.LFB68:
  73:main.c        ****     switch(byteReceived)
  74:main.c        ****     {
  75:main.c        ****         case 'q' :
  76:main.c        ****         {
  77:main.c        ****         }
  78:main.c        ****         break;
  79:main.c        ****         case 'w' :
  80:main.c        ****         {
  81:main.c        ****         }
  82:main.c        ****         break;
  83:main.c        ****         default :
  84:main.c        ****         {
  85:main.c        ****             // nothing
  86:main.c        ****         }
  87:main.c        ****         break;
  88:main.c        ****     }
  89:main.c        **** }
  90:main.c        **** 
  91:main.c        **** void writeToUART(float temp)
  92:main.c        **** {
 224              		.loc 1 92 0
 225              		.cfi_startproc
 226              		@ args = 0, pretend = 0, frame = 256
 227              		@ frame_needed = 0, uses_anonymous_args = 0
 228              	.LVL24:
 229              		.loc 1 92 0
 230 0000 00B5     		push	{lr}
 231              		.cfi_def_cfa_offset 4
 232              		.cfi_offset 14, -4
 233 0002 C3B0     		sub	sp, sp, #268
 234              		.cfi_def_cfa_offset 272
  93:main.c        **** char outputBuffer[256];
  94:main.c        **** snprintf(outputBuffer, sizeof(outputBuffer),
ARM GAS  C:\Users\Bruger\AppData\Local\Temp\ccHC3E6b.s 			page 7


 235              		.loc 1 94 0
 236 0004 FFF7FEFF 		bl	__aeabi_f2d
 237              	.LVL25:
 238 0008 CDE90001 		strd	r0, [sp]
 239 000c 054A     		ldr	r2, .L18
 240 000e 4FF48071 		mov	r1, #256
 241 0012 02A8     		add	r0, sp, #8
 242 0014 FFF7FEFF 		bl	snprintf
 243              	.LVL26:
  95:main.c        **** "Kg konverteret..: %f \r\n", temp);
  96:main.c        **** UART_1_PutString(outputBuffer);
 244              		.loc 1 96 0
 245 0018 02A8     		add	r0, sp, #8
 246 001a FFF7FEFF 		bl	UART_1_PutString
 247              	.LVL27:
  97:main.c        **** }
 248              		.loc 1 97 0
 249 001e 43B0     		add	sp, sp, #268
 250              		.cfi_def_cfa_offset 4
 251              		@ sp needed
 252 0020 5DF804FB 		ldr	pc, [sp], #4
 253              	.L19:
 254              		.align	2
 255              	.L18:
 256 0024 30000000 		.word	.LC2
 257              		.cfi_endproc
 258              	.LFE68:
 259              		.size	writeToUART, .-writeToUART
 260              		.section	.rodata.str1.4,"aMS",%progbits,1
 261              		.align	2
 262              	.LC0:
 263 0000 5363616C 		.ascii	"Scale application started\015\012\000"
 263      65206170 
 263      706C6963 
 263      6174696F 
 263      6E207374 
 264              	.LC1:
 265 001c 41444320 		.ascii	"ADC result: %f \015\012\000"
 265      72657375 
 265      6C743A20 
 265      2566200D 
 265      0A00
 266 002e 0000     		.space	2
 267              	.LC2:
 268 0030 4B67206B 		.ascii	"Kg konverteret..: %f \015\012\000"
 268      6F6E7665 
 268      72746572 
 268      65742E2E 
 268      3A202566 
 269              		.text
 270              	.Letext0:
 271              		.file 2 "c:\\program files (x86)\\cypress\\psoc creator\\4.4\\psoc creator\\import\\gnu\\arm\\5.4.
 272              		.file 3 "c:\\program files (x86)\\cypress\\psoc creator\\4.4\\psoc creator\\import\\gnu\\arm\\5.4.
 273              		.file 4 "Generated_Source\\PSoC5/UART_1.h"
 274              		.file 5 "Generated_Source\\PSoC5/ADC_SAR_1.h"
 275              		.file 6 "c:\\program files (x86)\\cypress\\psoc creator\\4.4\\psoc creator\\import\\gnu\\arm\\5.4.
 276              		.file 7 "Generated_Source\\PSoC5/isr_uart_rx.h"
ARM GAS  C:\Users\Bruger\AppData\Local\Temp\ccHC3E6b.s 			page 8


 277              		.file 8 "Generated_Source\\PSoC5/CyLib.h"
 278              		.file 9 "Generated_Source\\PSoC5/core_cm3.h"