ARM GAS  C:\Users\kaaen\AppData\Local\Temp\ccYZ18mA.s 			page 1


   1              		.syntax unified
   2              		.cpu cortex-m3
   3              		.fpu softvfp
   4              		.eabi_attribute 20, 1
   5              		.eabi_attribute 21, 1
   6              		.eabi_attribute 23, 3
   7              		.eabi_attribute 24, 1
   8              		.eabi_attribute 25, 1
   9              		.eabi_attribute 26, 1
  10              		.eabi_attribute 30, 1
  11              		.eabi_attribute 34, 1
  12              		.eabi_attribute 18, 4
  13              		.thumb
  14              		.syntax unified
  15              		.file	"main.c"
  16              		.text
  17              	.Ltext0:
  18              		.cfi_sections	.debug_frame
  19              		.section	.text.main,"ax",%progbits
  20              		.align	2
  21              		.global	main
  22              		.thumb
  23              		.thumb_func
  24              		.type	main, %function
  25              	main:
  26              	.LFB63:
  27              		.file 1 "main.c"
   1:main.c        **** #include "functions.h"
   2:main.c        **** 
   3:main.c        **** CY_ISR_PROTO(ISR_UART_rx_handler);
   4:main.c        **** void handleByteReceived(uint8_t byteReceived);
   5:main.c        **** 
   6:main.c        **** int main(void)
   7:main.c        **** {
  28              		.loc 1 7 0
  29              		.cfi_startproc
  30              		@ Volatile: function does not return.
  31              		@ args = 0, pretend = 0, frame = 0
  32              		@ frame_needed = 0, uses_anonymous_args = 0
  33 0000 08B5     		push	{r3, lr}
  34              		.cfi_def_cfa_offset 8
  35              		.cfi_offset 3, -8
  36              		.cfi_offset 14, -4
   8:main.c        ****     CyGlobalIntEnable; /* Enable global interrupts. */
  37              		.loc 1 8 0
  38              		.syntax unified
  39              	@ 8 "main.c" 1
  40 0002 62B6     		CPSIE   i
  41              	@ 0 "" 2
   9:main.c        **** 
  10:main.c        ****     /* Place your initialization/startup code here (e.g. MyInst_Start()) */
  11:main.c        ****     isr_uart_rx_StartEx(ISR_UART_rx_handler);
  42              		.loc 1 11 0
  43              		.thumb
  44              		.syntax unified
  45 0004 2848     		ldr	r0, .L14
  46 0006 FFF7FEFF 		bl	isr_uart_rx_StartEx
ARM GAS  C:\Users\kaaen\AppData\Local\Temp\ccYZ18mA.s 			page 2


  47              	.LVL0:
  12:main.c        ****     UART_1_Start();
  48              		.loc 1 12 0
  49 000a FFF7FEFF 		bl	UART_1_Start
  50              	.LVL1:
  13:main.c        ****     
  14:main.c        ****     // White = 1
  15:main.c        ****     // Blue = 2
  16:main.c        ****     // Red = 3
  17:main.c        ****     // Yellow = 4
  18:main.c        ****     // Black = 5
  19:main.c        ****     // Brown = 6
  20:main.c        ****     
  21:main.c        ****     UART_1_PutString("ServoMotor application started\r\n");
  51              		.loc 1 21 0
  52 000e 2748     		ldr	r0, .L14+4
  53 0010 FFF7FEFF 		bl	UART_1_PutString
  54              	.LVL2:
  22:main.c        ****     UART_1_PutString("0: Stop\r\n");
  55              		.loc 1 22 0
  56 0014 2648     		ldr	r0, .L14+8
  57 0016 FFF7FEFF 		bl	UART_1_PutString
  58              	.LVL3:
  23:main.c        ****     UART_1_PutString("1: Drive forwards\r\n");
  59              		.loc 1 23 0
  60 001a 2648     		ldr	r0, .L14+12
  61 001c FFF7FEFF 		bl	UART_1_PutString
  62              	.LVL4:
  24:main.c        ****     UART_1_PutString("2: Drive backwards\r\n");
  63              		.loc 1 24 0
  64 0020 2548     		ldr	r0, .L14+16
  65 0022 FFF7FEFF 		bl	UART_1_PutString
  66              	.LVL5:
  25:main.c        ****     UART_1_PutString("q: Decrease speed\r\n");
  67              		.loc 1 25 0
  68 0026 2548     		ldr	r0, .L14+20
  69 0028 FFF7FEFF 		bl	UART_1_PutString
  70              	.LVL6:
  26:main.c        ****     UART_1_PutString("w: Increase speed\r\n");
  71              		.loc 1 26 0
  72 002c 2448     		ldr	r0, .L14+24
  73 002e FFF7FEFF 		bl	UART_1_PutString
  74              	.LVL7:
  27:main.c        ****     UART_1_PutString("e: Run once forwards\r\n");
  75              		.loc 1 27 0
  76 0032 2448     		ldr	r0, .L14+28
  77 0034 FFF7FEFF 		bl	UART_1_PutString
  78              	.LVL8:
  28:main.c        ****     UART_1_PutString("r: Run once backwards\r\n");
  79              		.loc 1 28 0
  80 0038 2348     		ldr	r0, .L14+32
  81 003a FFF7FEFF 		bl	UART_1_PutString
  82              	.LVL9:
  29:main.c        ****     
  30:main.c        ****     UART_1_PutString("\r\nChose state:\r\n");
  83              		.loc 1 30 0
  84 003e 2348     		ldr	r0, .L14+36
ARM GAS  C:\Users\kaaen\AppData\Local\Temp\ccYZ18mA.s 			page 3


  85 0040 FFF7FEFF 		bl	UART_1_PutString
  86              	.LVL10:
  31:main.c        ****     UART_1_PutString("a: Full step\r\n");
  87              		.loc 1 31 0
  88 0044 2248     		ldr	r0, .L14+40
  89 0046 FFF7FEFF 		bl	UART_1_PutString
  90              	.LVL11:
  32:main.c        ****     UART_1_PutString("s: Half step\r\n");
  91              		.loc 1 32 0
  92 004a 2248     		ldr	r0, .L14+44
  93 004c FFF7FEFF 		bl	UART_1_PutString
  94              	.LVL12:
  33:main.c        ****     UART_1_PutString("d: Wave-drive\r\n");
  95              		.loc 1 33 0
  96 0050 2148     		ldr	r0, .L14+48
  97 0052 FFF7FEFF 		bl	UART_1_PutString
  98              	.LVL13:
  99              	.L4:
  34:main.c        **** 
  35:main.c        ****     for(;;)
  36:main.c        ****     {
  37:main.c        ****         switch(getDirection()) {
 100              		.loc 1 37 0
 101 0056 FFF7FEFF 		bl	getDirection
 102              	.LVL14:
 103 005a 0128     		cmp	r0, #1
 104 005c 02D0     		beq	.L5
 105 005e 0228     		cmp	r0, #2
 106 0060 11D0     		beq	.L6
 107 0062 F8E7     		b	.L4
 108              	.L5:
  38:main.c        ****             
  39:main.c        ****             // Forwards
  40:main.c        ****             case 1 :
  41:main.c        ****             {
  42:main.c        ****                 switch(getState()) {
 109              		.loc 1 42 0
 110 0064 FFF7FEFF 		bl	getState
 111              	.LVL15:
 112 0068 0228     		cmp	r0, #2
 113 006a 06D0     		beq	.L7
 114 006c 0328     		cmp	r0, #3
 115 006e 07D0     		beq	.L8
 116 0070 0128     		cmp	r0, #1
 117 0072 F0D1     		bne	.L4
  43:main.c        ****                     
  44:main.c        ****                     // Full step
  45:main.c        ****                     case 1 : 
  46:main.c        ****                     {
  47:main.c        ****                         driveForwardsFull(); 
 118              		.loc 1 47 0
 119 0074 FFF7FEFF 		bl	driveForwardsFull
 120              	.LVL16:
  48:main.c        ****                     }
  49:main.c        ****                     break;
 121              		.loc 1 49 0
 122 0078 EDE7     		b	.L4
ARM GAS  C:\Users\kaaen\AppData\Local\Temp\ccYZ18mA.s 			page 4


 123              	.L7:
  50:main.c        ****                     
  51:main.c        ****                     // Half step
  52:main.c        ****                     case 2 : 
  53:main.c        ****                     {
  54:main.c        ****                         driveForwardsHalf();
 124              		.loc 1 54 0
 125 007a FFF7FEFF 		bl	driveForwardsHalf
 126              	.LVL17:
  55:main.c        ****                     }
  56:main.c        ****                     break;
 127              		.loc 1 56 0
 128 007e EAE7     		b	.L4
 129              	.L8:
  57:main.c        ****                     
  58:main.c        ****                     // Wave step
  59:main.c        ****                     case 3 : 
  60:main.c        ****                     {
  61:main.c        ****                         driveForwardsWave();
 130              		.loc 1 61 0
 131 0080 FFF7FEFF 		bl	driveForwardsWave
 132              	.LVL18:
  62:main.c        ****                     }
  63:main.c        ****                     break;
 133              		.loc 1 63 0
 134 0084 E7E7     		b	.L4
 135              	.L6:
  64:main.c        ****                     
  65:main.c        ****                     default : 
  66:main.c        ****                     {
  67:main.c        ****                         //Nothing
  68:main.c        ****                     }
  69:main.c        ****                     break;
  70:main.c        ****                 }
  71:main.c        ****             }
  72:main.c        ****             break;
  73:main.c        ****             
  74:main.c        ****             // Backwards
  75:main.c        ****             case 2 :
  76:main.c        ****             {
  77:main.c        ****                 switch(getState()) {
 136              		.loc 1 77 0
 137 0086 FFF7FEFF 		bl	getState
 138              	.LVL19:
 139 008a 0228     		cmp	r0, #2
 140 008c 06D0     		beq	.L10
 141 008e 0328     		cmp	r0, #3
 142 0090 07D0     		beq	.L11
 143 0092 0128     		cmp	r0, #1
 144 0094 DFD1     		bne	.L4
  78:main.c        ****                     
  79:main.c        ****                     // Full step
  80:main.c        ****                     case 1 : 
  81:main.c        ****                     {
  82:main.c        ****                         driveBackwardsFull();
 145              		.loc 1 82 0
 146 0096 FFF7FEFF 		bl	driveBackwardsFull
ARM GAS  C:\Users\kaaen\AppData\Local\Temp\ccYZ18mA.s 			page 5


 147              	.LVL20:
  83:main.c        ****                     }
  84:main.c        ****                     break;
 148              		.loc 1 84 0
 149 009a DCE7     		b	.L4
 150              	.L10:
  85:main.c        ****                     
  86:main.c        ****                     // Half step
  87:main.c        ****                     case 2 : 
  88:main.c        ****                     {
  89:main.c        ****                         driveBackwardsHalf();
 151              		.loc 1 89 0
 152 009c FFF7FEFF 		bl	driveBackwardsHalf
 153              	.LVL21:
  90:main.c        ****                     }
  91:main.c        ****                     break;
 154              		.loc 1 91 0
 155 00a0 D9E7     		b	.L4
 156              	.L11:
  92:main.c        ****                     
  93:main.c        ****                     // Wave step
  94:main.c        ****                     case 3 : 
  95:main.c        ****                     {
  96:main.c        ****                         driveBackwardsWave();
 157              		.loc 1 96 0
 158 00a2 FFF7FEFF 		bl	driveBackwardsWave
 159              	.LVL22:
  97:main.c        ****                     }
  98:main.c        ****                     break;
 160              		.loc 1 98 0
 161 00a6 D6E7     		b	.L4
 162              	.L15:
 163              		.align	2
 164              	.L14:
 165 00a8 00000000 		.word	ISR_UART_rx_handler
 166 00ac 00000000 		.word	.LC0
 167 00b0 24000000 		.word	.LC1
 168 00b4 30000000 		.word	.LC2
 169 00b8 44000000 		.word	.LC3
 170 00bc 5C000000 		.word	.LC4
 171 00c0 70000000 		.word	.LC5
 172 00c4 84000000 		.word	.LC6
 173 00c8 9C000000 		.word	.LC7
 174 00cc B4000000 		.word	.LC8
 175 00d0 C8000000 		.word	.LC9
 176 00d4 D8000000 		.word	.LC10
 177 00d8 E8000000 		.word	.LC11
 178              		.cfi_endproc
 179              	.LFE63:
 180              		.size	main, .-main
 181              		.section	.text.handleByteReceived,"ax",%progbits
 182              		.align	2
 183              		.global	handleByteReceived
 184              		.thumb
 185              		.thumb_func
 186              		.type	handleByteReceived, %function
 187              	handleByteReceived:
ARM GAS  C:\Users\kaaen\AppData\Local\Temp\ccYZ18mA.s 			page 6


 188              	.LFB65:
  99:main.c        ****                     
 100:main.c        ****                     default : 
 101:main.c        ****                     {
 102:main.c        ****                         // Nothing
 103:main.c        ****                     }
 104:main.c        ****                 }
 105:main.c        ****                 
 106:main.c        ****             }
 107:main.c        ****             break;
 108:main.c        ****             
 109:main.c        ****             
 110:main.c        ****             default : 
 111:main.c        ****             {
 112:main.c        ****             }
 113:main.c        ****             break;
 114:main.c        ****         }
 115:main.c        ****     }
 116:main.c        **** }
 117:main.c        **** 
 118:main.c        **** CY_ISR(ISR_UART_rx_handler)
 119:main.c        **** {
 120:main.c        ****     uint8_t bytesToRead = UART_1_GetRxBufferSize();
 121:main.c        ****     while (bytesToRead > 0)
 122:main.c        ****     {
 123:main.c        ****         uint8_t byteReceived = UART_1_ReadRxData();
 124:main.c        ****         UART_1_WriteTxData(byteReceived); // echo back
 125:main.c        ****         
 126:main.c        ****         handleByteReceived(byteReceived);
 127:main.c        ****         
 128:main.c        ****         bytesToRead--;
 129:main.c        ****     }
 130:main.c        **** }
 131:main.c        **** 
 132:main.c        **** void handleByteReceived(uint8_t byteReceived)
 133:main.c        **** {
 189              		.loc 1 133 0
 190              		.cfi_startproc
 191              		@ args = 0, pretend = 0, frame = 0
 192              		@ frame_needed = 0, uses_anonymous_args = 0
 193              	.LVL23:
 194 0000 08B5     		push	{r3, lr}
 195              		.cfi_def_cfa_offset 8
 196              		.cfi_offset 3, -8
 197              		.cfi_offset 14, -4
 134:main.c        ****     run(byteReceived);
 198              		.loc 1 134 0
 199 0002 FFF7FEFF 		bl	run
 200              	.LVL24:
 201 0006 08BD     		pop	{r3, pc}
 202              		.cfi_endproc
 203              	.LFE65:
 204              		.size	handleByteReceived, .-handleByteReceived
 205              		.section	.text.ISR_UART_rx_handler,"ax",%progbits
 206              		.align	2
 207              		.global	ISR_UART_rx_handler
 208              		.thumb
ARM GAS  C:\Users\kaaen\AppData\Local\Temp\ccYZ18mA.s 			page 7


 209              		.thumb_func
 210              		.type	ISR_UART_rx_handler, %function
 211              	ISR_UART_rx_handler:
 212              	.LFB64:
 119:main.c        ****     uint8_t bytesToRead = UART_1_GetRxBufferSize();
 213              		.loc 1 119 0
 214              		.cfi_startproc
 215              		@ args = 0, pretend = 0, frame = 0
 216              		@ frame_needed = 0, uses_anonymous_args = 0
 217 0000 38B5     		push	{r3, r4, r5, lr}
 218              		.cfi_def_cfa_offset 16
 219              		.cfi_offset 3, -16
 220              		.cfi_offset 4, -12
 221              		.cfi_offset 5, -8
 222              		.cfi_offset 14, -4
 120:main.c        ****     while (bytesToRead > 0)
 223              		.loc 1 120 0
 224 0002 FFF7FEFF 		bl	UART_1_GetRxBufferSize
 225              	.LVL25:
 226 0006 0446     		mov	r4, r0
 227              	.LVL26:
 121:main.c        ****     {
 228              		.loc 1 121 0
 229 0008 09E0     		b	.L19
 230              	.L20:
 231              	.LBB2:
 123:main.c        ****         UART_1_WriteTxData(byteReceived); // echo back
 232              		.loc 1 123 0
 233 000a FFF7FEFF 		bl	UART_1_ReadRxData
 234              	.LVL27:
 235 000e 0546     		mov	r5, r0
 236              	.LVL28:
 124:main.c        ****         
 237              		.loc 1 124 0
 238 0010 FFF7FEFF 		bl	UART_1_WriteTxData
 239              	.LVL29:
 126:main.c        ****         
 240              		.loc 1 126 0
 241 0014 2846     		mov	r0, r5
 242 0016 FFF7FEFF 		bl	handleByteReceived
 243              	.LVL30:
 128:main.c        ****     }
 244              		.loc 1 128 0
 245 001a 013C     		subs	r4, r4, #1
 246              	.LVL31:
 247 001c E4B2     		uxtb	r4, r4
 248              	.LVL32:
 249              	.L19:
 250              	.LBE2:
 121:main.c        ****     {
 251              		.loc 1 121 0
 252 001e 002C     		cmp	r4, #0
 253 0020 F3D1     		bne	.L20
 130:main.c        **** 
 254              		.loc 1 130 0
 255 0022 38BD     		pop	{r3, r4, r5, pc}
 256              		.cfi_endproc
ARM GAS  C:\Users\kaaen\AppData\Local\Temp\ccYZ18mA.s 			page 8


 257              	.LFE64:
 258              		.size	ISR_UART_rx_handler, .-ISR_UART_rx_handler
 259              		.section	.rodata.str1.4,"aMS",%progbits,1
 260              		.align	2
 261              	.LC0:
 262 0000 53657276 		.ascii	"ServoMotor application started\015\012\000"
 262      6F4D6F74 
 262      6F722061 
 262      70706C69 
 262      63617469 
 263 0021 000000   		.space	3
 264              	.LC1:
 265 0024 303A2053 		.ascii	"0: Stop\015\012\000"
 265      746F700D 
 265      0A00
 266 002e 0000     		.space	2
 267              	.LC2:
 268 0030 313A2044 		.ascii	"1: Drive forwards\015\012\000"
 268      72697665 
 268      20666F72 
 268      77617264 
 268      730D0A00 
 269              	.LC3:
 270 0044 323A2044 		.ascii	"2: Drive backwards\015\012\000"
 270      72697665 
 270      20626163 
 270      6B776172 
 270      64730D0A 
 271 0059 000000   		.space	3
 272              	.LC4:
 273 005c 713A2044 		.ascii	"q: Decrease speed\015\012\000"
 273      65637265 
 273      61736520 
 273      73706565 
 273      640D0A00 
 274              	.LC5:
 275 0070 773A2049 		.ascii	"w: Increase speed\015\012\000"
 275      6E637265 
 275      61736520 
 275      73706565 
 275      640D0A00 
 276              	.LC6:
 277 0084 653A2052 		.ascii	"e: Run once forwards\015\012\000"
 277      756E206F 
 277      6E636520 
 277      666F7277 
 277      61726473 
 278 009b 00       		.space	1
 279              	.LC7:
 280 009c 723A2052 		.ascii	"r: Run once backwards\015\012\000"
 280      756E206F 
 280      6E636520 
 280      6261636B 
 280      77617264 
 281              	.LC8:
 282 00b4 0D0A4368 		.ascii	"\015\012Chose state:\015\012\000"
 282      6F736520 
ARM GAS  C:\Users\kaaen\AppData\Local\Temp\ccYZ18mA.s 			page 9


 282      73746174 
 282      653A0D0A 
 282      00
 283 00c5 000000   		.space	3
 284              	.LC9:
 285 00c8 613A2046 		.ascii	"a: Full step\015\012\000"
 285      756C6C20 
 285      73746570 
 285      0D0A00
 286 00d7 00       		.space	1
 287              	.LC10:
 288 00d8 733A2048 		.ascii	"s: Half step\015\012\000"
 288      616C6620 
 288      73746570 
 288      0D0A00
 289 00e7 00       		.space	1
 290              	.LC11:
 291 00e8 643A2057 		.ascii	"d: Wave-drive\015\012\000"
 291      6176652D 
 291      64726976 
 291      650D0A00 
 292              		.text
 293              	.Letext0:
 294              		.file 2 "c:\\program files (x86)\\cypress\\psoc creator\\4.4\\psoc creator\\import\\gnu\\arm\\5.4.
 295              		.file 3 "c:\\program files (x86)\\cypress\\psoc creator\\4.4\\psoc creator\\import\\gnu\\arm\\5.4.
 296              		.file 4 "Generated_Source\\PSoC5/isr_uart_rx.h"
 297              		.file 5 "Generated_Source\\PSoC5/UART_1.h"
 298              		.file 6 "functions.h"
 299              		.file 7 "Generated_Source\\PSoC5/core_cm3.h"