ARM GAS  C:\Users\Thomas\AppData\Local\Temp\ccNAYBjV.s 			page 1


   1              		.syntax unified
   2              		.cpu cortex-m3
   3              		.fpu softvfp
   4              		.eabi_attribute 20, 1
   5              		.eabi_attribute 21, 1
   6              		.eabi_attribute 23, 3
   7              		.eabi_attribute 24, 1
   8              		.eabi_attribute 25, 1
   9              		.eabi_attribute 26, 1
  10              		.eabi_attribute 30, 1
  11              		.eabi_attribute 34, 1
  12              		.eabi_attribute 18, 4
  13              		.thumb
  14              		.syntax unified
  15              		.file	"main.c"
  16              		.text
  17              	.Ltext0:
  18              		.cfi_sections	.debug_frame
  19              		.section	.text.ISR_2_handler,"ax",%progbits
  20              		.align	2
  21              		.global	ISR_2_handler
  22              		.thumb
  23              		.thumb_func
  24              		.type	ISR_2_handler, %function
  25              	ISR_2_handler:
  26              	.LFB64:
  27              		.file 1 "main.c"
   1:main.c        **** #include "functions.h"
   2:main.c        **** 
   3:main.c        **** CY_ISR_PROTO(ISR_2_handler); // Interrupt
   4:main.c        **** 
   5:main.c        **** int main(void)
   6:main.c        **** {
   7:main.c        ****     CyGlobalIntEnable; // Start global interruupts
   8:main.c        ****     UART_1_Start(); // Start UART
   9:main.c        ****     SPIM_1_Start(); // Start Master / Slave
  10:main.c        ****     isr_2_StartEx(ISR_2_handler); // Knytter UART interrupts til funktionen ISR_2_handler
  11:main.c        ****     
  12:main.c        ****     for(;;)
  13:main.c        ****     {
  14:main.c        ****         // Gør ingenting
  15:main.c        ****     }
  16:main.c        **** }
  17:main.c        **** 
  18:main.c        **** CY_ISR(ISR_2_handler) // Håndterer tryk fra UART
  19:main.c        **** {
  28              		.loc 1 19 0
  29              		.cfi_startproc
  30              		@ args = 0, pretend = 0, frame = 0
  31              		@ frame_needed = 0, uses_anonymous_args = 0
  32 0000 38B5     		push	{r3, r4, r5, lr}
  33              		.cfi_def_cfa_offset 16
  34              		.cfi_offset 3, -16
  35              		.cfi_offset 4, -12
  36              		.cfi_offset 5, -8
  37              		.cfi_offset 14, -4
  20:main.c        ****     uint8_t bytesToRead = UART_1_GetRxBufferSize();
ARM GAS  C:\Users\Thomas\AppData\Local\Temp\ccNAYBjV.s 			page 2


  38              		.loc 1 20 0
  39 0002 FFF7FEFF 		bl	UART_1_GetRxBufferSize
  40              	.LVL0:
  41 0006 0446     		mov	r4, r0
  42              	.LVL1:
  21:main.c        ****     while (bytesToRead > 0)
  43              		.loc 1 21 0
  44 0008 09E0     		b	.L2
  45              	.L3:
  46              	.LBB2:
  22:main.c        ****     {
  23:main.c        ****         uint8_t byteReceived = UART_1_ReadRxData();
  47              		.loc 1 23 0
  48 000a FFF7FEFF 		bl	UART_1_ReadRxData
  49              	.LVL2:
  50 000e 0546     		mov	r5, r0
  51              	.LVL3:
  24:main.c        ****         UART_1_WriteTxData(byteReceived); // Udskriv tryk
  52              		.loc 1 24 0
  53 0010 FFF7FEFF 		bl	UART_1_WriteTxData
  54              	.LVL4:
  25:main.c        ****         handleByteReceived(byteReceived); // Send videre
  55              		.loc 1 25 0
  56 0014 2846     		mov	r0, r5
  57 0016 FFF7FEFF 		bl	handleByteReceived
  58              	.LVL5:
  26:main.c        ****         
  27:main.c        ****         bytesToRead--;
  59              		.loc 1 27 0
  60 001a 013C     		subs	r4, r4, #1
  61              	.LVL6:
  62 001c E4B2     		uxtb	r4, r4
  63              	.LVL7:
  64              	.L2:
  65              	.LBE2:
  21:main.c        ****     {
  66              		.loc 1 21 0
  67 001e 002C     		cmp	r4, #0
  68 0020 F3D1     		bne	.L3
  28:main.c        ****     }
  29:main.c        **** }
  69              		.loc 1 29 0
  70 0022 38BD     		pop	{r3, r4, r5, pc}
  71              		.cfi_endproc
  72              	.LFE64:
  73              		.size	ISR_2_handler, .-ISR_2_handler
  74              		.section	.text.main,"ax",%progbits
  75              		.align	2
  76              		.global	main
  77              		.thumb
  78              		.thumb_func
  79              		.type	main, %function
  80              	main:
  81              	.LFB63:
   6:main.c        ****     CyGlobalIntEnable; // Start global interruupts
  82              		.loc 1 6 0
  83              		.cfi_startproc
ARM GAS  C:\Users\Thomas\AppData\Local\Temp\ccNAYBjV.s 			page 3


  84              		@ Volatile: function does not return.
  85              		@ args = 0, pretend = 0, frame = 0
  86              		@ frame_needed = 0, uses_anonymous_args = 0
  87 0000 08B5     		push	{r3, lr}
  88              		.cfi_def_cfa_offset 8
  89              		.cfi_offset 3, -8
  90              		.cfi_offset 14, -4
   7:main.c        ****     UART_1_Start(); // Start UART
  91              		.loc 1 7 0
  92              		.syntax unified
  93              	@ 7 "main.c" 1
  94 0002 62B6     		CPSIE   i
  95              	@ 0 "" 2
   8:main.c        ****     SPIM_1_Start(); // Start Master / Slave
  96              		.loc 1 8 0
  97              		.thumb
  98              		.syntax unified
  99 0004 FFF7FEFF 		bl	UART_1_Start
 100              	.LVL8:
   9:main.c        ****     isr_2_StartEx(ISR_2_handler); // Knytter UART interrupts til funktionen ISR_2_handler
 101              		.loc 1 9 0
 102 0008 FFF7FEFF 		bl	SPIM_1_Start
 103              	.LVL9:
  10:main.c        ****     
 104              		.loc 1 10 0
 105 000c 0148     		ldr	r0, .L8
 106 000e FFF7FEFF 		bl	isr_2_StartEx
 107              	.LVL10:
 108              	.L6:
 109 0012 FEE7     		b	.L6
 110              	.L9:
 111              		.align	2
 112              	.L8:
 113 0014 00000000 		.word	ISR_2_handler
 114              		.cfi_endproc
 115              	.LFE63:
 116              		.size	main, .-main
 117              		.text
 118              	.Letext0:
 119              		.file 2 "c:\\program files (x86)\\cypress\\psoc creator\\4.4\\psoc creator\\import\\gnu\\arm\\5.4.
 120              		.file 3 "c:\\program files (x86)\\cypress\\psoc creator\\4.4\\psoc creator\\import\\gnu\\arm\\5.4.
 121              		.file 4 "Generated_Source\\PSoC5/UART_1.h"
 122              		.file 5 "functions.h"
 123              		.file 6 "Generated_Source\\PSoC5/SPIM_1.h"
 124              		.file 7 "Generated_Source\\PSoC5/isr_2.h"
 125              		.file 8 "Generated_Source\\PSoC5/core_cm3.h"