ARM GAS  C:\Users\jakob\AppData\Local\Temp\ccsEp4PC.s 			page 1


   1              		.syntax unified
   2              		.cpu cortex-m3
   3              		.fpu softvfp
   4              		.eabi_attribute 20, 1
   5              		.eabi_attribute 21, 1
   6              		.eabi_attribute 23, 3
   7              		.eabi_attribute 24, 1
   8              		.eabi_attribute 25, 1
   9              		.eabi_attribute 26, 1
  10              		.eabi_attribute 30, 1
  11              		.eabi_attribute 34, 1
  12              		.eabi_attribute 18, 4
  13              		.thumb
  14              		.syntax unified
  15              		.file	"functions.c"
  16              		.text
  17              	.Ltext0:
  18              		.cfi_sections	.debug_frame
  19              		.global	__aeabi_f2d
  20              		.section	.text.writeTempToUART,"ax",%progbits
  21              		.align	2
  22              		.global	writeTempToUART
  23              		.thumb
  24              		.thumb_func
  25              		.type	writeTempToUART, %function
  26              	writeTempToUART:
  27              	.LFB64:
  28              		.file 1 "functions.c"
   1:functions.c   **** #include "functions.h"
   2:functions.c   **** 
   3:functions.c   **** void readAndPrint(uint8 adress)
   4:functions.c   **** {
   5:functions.c   ****     uint8 errorMSG, byte1, byte2;
   6:functions.c   ****     float temperature;
   7:functions.c   ****     /*Send start til slave 1. Gem error MSG */
   8:functions.c   ****     errorMSG = I2C_1_MasterSendStart(adress,1); 
   9:functions.c   ****         if(errorMSG != I2C_1_MSTR_NO_ERROR) 
  10:functions.c   ****         UART_1_PutString("START NOT ACKNOWLEDGED");
  11:functions.c   ****         
  12:functions.c   ****     //Læs første byte. MSB kommer først. Send ACK efter
  13:functions.c   ****     byte1 = I2C_1_MasterReadByte(I2C_1_ACK_DATA); 
  14:functions.c   ****     
  15:functions.c   ****     //Læs andet byte. Kun LSB her. Send NACK, så den ikke sender mere.
  16:functions.c   ****     byte2 = I2C_1_MasterReadByte(I2C_1_NAK_DATA); 
  17:functions.c   ****    
  18:functions.c   ****     //Bed den om at stoppe
  19:functions.c   ****     I2C_1_MasterSendStop(); 
  20:functions.c   ****     
  21:functions.c   ****     //Konverter fra 2's complement til float
  22:functions.c   ****     temperature = convertMeasurement(byte1, byte2); 
  23:functions.c   ****     //Udskriv float i UART
  24:functions.c   ****     writeTempToUART(temperature); 
  25:functions.c   **** }
  26:functions.c   **** 
  27:functions.c   **** void writeTempToUART(float temp)
  28:functions.c   **** {
  29              		.loc 1 28 0
ARM GAS  C:\Users\jakob\AppData\Local\Temp\ccsEp4PC.s 			page 2


  30              		.cfi_startproc
  31              		@ args = 0, pretend = 0, frame = 256
  32              		@ frame_needed = 0, uses_anonymous_args = 0
  33              	.LVL0:
  34 0000 00B5     		push	{lr}
  35              		.cfi_def_cfa_offset 4
  36              		.cfi_offset 14, -4
  37 0002 C3B0     		sub	sp, sp, #268
  38              		.cfi_def_cfa_offset 272
  29:functions.c   ****     char outputbuffer[256];
  30:functions.c   ****     
  31:functions.c   ****     snprintf(outputbuffer, sizeof(outputbuffer),"Temperature: %f \r\n", temp);
  39              		.loc 1 31 0
  40 0004 FFF7FEFF 		bl	__aeabi_f2d
  41              	.LVL1:
  42 0008 CDE90001 		strd	r0, [sp]
  43 000c 054A     		ldr	r2, .L3
  44 000e 4FF48071 		mov	r1, #256
  45 0012 02A8     		add	r0, sp, #8
  46 0014 FFF7FEFF 		bl	snprintf
  47              	.LVL2:
  32:functions.c   ****     UART_1_PutString(outputbuffer);
  48              		.loc 1 32 0
  49 0018 02A8     		add	r0, sp, #8
  50 001a FFF7FEFF 		bl	UART_1_PutString
  51              	.LVL3:
  33:functions.c   **** }
  52              		.loc 1 33 0
  53 001e 43B0     		add	sp, sp, #268
  54              		.cfi_def_cfa_offset 4
  55              		@ sp needed
  56 0020 5DF804FB 		ldr	pc, [sp], #4
  57              	.L4:
  58              		.align	2
  59              	.L3:
  60 0024 00000000 		.word	.LC0
  61              		.cfi_endproc
  62              	.LFE64:
  63              		.size	writeTempToUART, .-writeTempToUART
  64              		.global	__aeabi_ui2f
  65              		.global	__aeabi_fmul
  66              		.section	.text.convertMeasurement,"ax",%progbits
  67              		.align	2
  68              		.global	convertMeasurement
  69              		.thumb
  70              		.thumb_func
  71              		.type	convertMeasurement, %function
  72              	convertMeasurement:
  73              	.LFB65:
  34:functions.c   **** 
  35:functions.c   **** 
  36:functions.c   **** 
  37:functions.c   **** float convertMeasurement(uint8 byte1, uint8 byte2)
  38:functions.c   **** {
  74              		.loc 1 38 0
  75              		.cfi_startproc
  76              		@ args = 0, pretend = 0, frame = 0
ARM GAS  C:\Users\jakob\AppData\Local\Temp\ccsEp4PC.s 			page 3


  77              		@ frame_needed = 0, uses_anonymous_args = 0
  78              	.LVL4:
  79 0000 10B5     		push	{r4, lr}
  80              		.cfi_def_cfa_offset 8
  81              		.cfi_offset 4, -8
  82              		.cfi_offset 14, -4
  83              	.LVL5:
  39:functions.c   ****     //temporary variable til bitshifting
  40:functions.c   ****     uint8 temp1, temp2; 
  41:functions.c   ****     //Det ene most significant bit bliver gemt her til sidst. (BIT 8)
  42:functions.c   ****     uint8 msb;
  43:functions.c   ****     //De 8 LSBs bliver gemt her. Bit 0:7
  44:functions.c   ****     uint8 lsb; 
  45:functions.c   ****     float temperature;
  46:functions.c   ****     
  47:functions.c   ****     msb = byte1>>7; // Fortegn ligger her. MSB 
  48:functions.c   ****     temp1 = byte2>>7;
  49:functions.c   ****     temp2 = byte1<<1;
  84              		.loc 1 49 0
  85 0002 4300     		lsls	r3, r0, #1
  86 0004 DBB2     		uxtb	r3, r3
  87              	.LVL6:
  50:functions.c   ****     lsb = temp1 + temp2; /* Temperatur ligger her */
  88              		.loc 1 50 0
  89 0006 03EBD111 		add	r1, r3, r1, lsr #7
  90              	.LVL7:
  91 000a C9B2     		uxtb	r1, r1
  92              	.LVL8:
  51:functions.c   ****     
  52:functions.c   ****     if(msb == 0)
  93              		.loc 1 52 0
  94 000c C009     		lsrs	r0, r0, #7
  95              	.LVL9:
  96 000e 08D1     		bne	.L6
  53:functions.c   ****     {
  54:functions.c   ****         temperature = (float)lsb/2;
  97              		.loc 1 54 0
  98 0010 0846     		mov	r0, r1
  99 0012 FFF7FEFF 		bl	__aeabi_ui2f
 100              	.LVL10:
 101 0016 4FF07C51 		mov	r1, #1056964608
 102 001a FFF7FEFF 		bl	__aeabi_fmul
 103              	.LVL11:
 104 001e 0446     		mov	r4, r0
 105              	.LVL12:
 106 0020 0FE0     		b	.L7
 107              	.LVL13:
 108              	.L6:
  55:functions.c   ****     }
  56:functions.c   ****     else if(msb == 1)
 109              		.loc 1 56 0
 110 0022 58B1     		cbz	r0, .L8
  57:functions.c   ****     {
  58:functions.c   ****         lsb = ~lsb + 0b00000001;
 111              		.loc 1 58 0
 112 0024 4842     		negs	r0, r1
 113              	.LVL14:
ARM GAS  C:\Users\jakob\AppData\Local\Temp\ccsEp4PC.s 			page 4


  59:functions.c   ****         temperature = -((float)lsb)/2;
 114              		.loc 1 59 0
 115 0026 C0B2     		uxtb	r0, r0
 116 0028 FFF7FEFF 		bl	__aeabi_ui2f
 117              	.LVL15:
 118 002c 00F10040 		add	r0, r0, #-2147483648
 119 0030 4FF07C51 		mov	r1, #1056964608
 120 0034 FFF7FEFF 		bl	__aeabi_fmul
 121              	.LVL16:
 122 0038 0446     		mov	r4, r0
 123              	.LVL17:
 124 003a 02E0     		b	.L7
 125              	.LVL18:
 126              	.L8:
  60:functions.c   ****     }
  61:functions.c   ****     else
  62:functions.c   ****     {
  63:functions.c   ****         UART_1_PutString("SOMETHING WENT WRONG IN MEASUREMENT CONVERSION");
 127              		.loc 1 63 0
 128 003c 0248     		ldr	r0, .L10
 129 003e FFF7FEFF 		bl	UART_1_PutString
 130              	.LVL19:
 131              	.L7:
  64:functions.c   ****     }
  65:functions.c   ****    
  66:functions.c   ****     return temperature;
  67:functions.c   **** }...
 132              		.loc 1 67 0
 133 0042 2046     		mov	r0, r4
 134 0044 10BD     		pop	{r4, pc}
 135              	.LVL20:
 136              	.L11:
 137 0046 00BF     		.align	2
 138              	.L10:
 139 0048 14000000 		.word	.LC1
 140              		.cfi_endproc
 141              	.LFE65:
 142              		.size	convertMeasurement, .-convertMeasurement
 143              		.section	.text.readAndPrint,"ax",%progbits
 144              		.align	2
 145              		.global	readAndPrint
 146              		.thumb
 147              		.thumb_func
 148              		.type	readAndPrint, %function
 149              	readAndPrint:
 150              	.LFB63:
   4:functions.c   ****     uint8 errorMSG, byte1, byte2;
 151              		.loc 1 4 0
 152              		.cfi_startproc
 153              		@ args = 0, pretend = 0, frame = 0
 154              		@ frame_needed = 0, uses_anonymous_args = 0
 155              	.LVL21:
 156 0000 38B5     		push	{r3, r4, r5, lr}
 157              		.cfi_def_cfa_offset 16
 158              		.cfi_offset 3, -16
 159              		.cfi_offset 4, -12
 160              		.cfi_offset 5, -8
ARM GAS  C:\Users\jakob\AppData\Local\Temp\ccsEp4PC.s 			page 5


 161              		.cfi_offset 14, -4
   8:functions.c   ****     errorMSG = I2C_1_MasterSendStart(adress,1); 
 162              		.loc 1 8 0
 163 0002 0121     		movs	r1, #1
 164 0004 FFF7FEFF 		bl	I2C_1_MasterSendStart
 165              	.LVL22:
   9:functions.c   ****         if(errorMSG != I2C_1_MSTR_NO_ERROR) 
 166              		.loc 1 9 0
 167 0008 10B1     		cbz	r0, .L13
  10:functions.c   ****         UART_1_PutString("START NOT ACKNOWLEDGED");
 168              		.loc 1 10 0
 169 000a 0A48     		ldr	r0, .L15
 170              	.LVL23:
 171 000c FFF7FEFF 		bl	UART_1_PutString
 172              	.LVL24:
 173              	.L13:
  13:functions.c   ****     byte1 = I2C_1_MasterReadByte(I2C_1_ACK_DATA); 
 174              		.loc 1 13 0
 175 0010 0120     		movs	r0, #1
 176 0012 FFF7FEFF 		bl	I2C_1_MasterReadByte
 177              	.LVL25:
 178 0016 0446     		mov	r4, r0
 179              	.LVL26:
  16:functions.c   ****     byte2 = I2C_1_MasterReadByte(I2C_1_NAK_DATA); 
 180              		.loc 1 16 0
 181 0018 0020     		movs	r0, #0
 182 001a FFF7FEFF 		bl	I2C_1_MasterReadByte
 183              	.LVL27:
 184 001e 0546     		mov	r5, r0
 185              	.LVL28:
  19:functions.c   ****     I2C_1_MasterSendStop(); 
 186              		.loc 1 19 0
 187 0020 FFF7FEFF 		bl	I2C_1_MasterSendStop
 188              	.LVL29:
  22:functions.c   ****     temperature = convertMeasurement(byte1, byte2); 
 189              		.loc 1 22 0
 190 0024 2946     		mov	r1, r5
 191 0026 2046     		mov	r0, r4
 192 0028 FFF7FEFF 		bl	convertMeasurement
 193              	.LVL30:
  24:functions.c   ****     writeTempToUART(temperature); 
 194              		.loc 1 24 0
 195 002c FFF7FEFF 		bl	writeTempToUART
 196              	.LVL31:
 197 0030 38BD     		pop	{r3, r4, r5, pc}
 198              	.LVL32:
 199              	.L16:
 200 0032 00BF     		.align	2
 201              	.L15:
 202 0034 44000000 		.word	.LC2
 203              		.cfi_endproc
 204              	.LFE63:
 205              		.size	readAndPrint, .-readAndPrint
 206              		.section	.rodata.str1.4,"aMS",%progbits,1
 207              		.align	2
 208              	.LC0:
 209 0000 54656D70 		.ascii	"Temperature: %f \015\012\000"
ARM GAS  C:\Users\jakob\AppData\Local\Temp\ccsEp4PC.s 			page 6


 209      65726174 
 209      7572653A 
 209      20256620 
 209      0D0A00
 210 0013 00       		.space	1
 211              	.LC1:
 212 0014 534F4D45 		.ascii	"SOMETHING WENT WRONG IN MEASUREMENT CONVERSION\000"
 212      5448494E 
 212      47205745 
 212      4E542057 
 212      524F4E47 
 213 0043 00       		.space	1
 214              	.LC2:
 215 0044 53544152 		.ascii	"START NOT ACKNOWLEDGED\000"
 215      54204E4F 
 215      54204143 
 215      4B4E4F57 
 215      4C454447 
 216              		.text
 217              	.Letext0:
 218              		.file 2 "c:\\program files (x86)\\cypress\\psoc creator\\4.4\\psoc creator\\import\\gnu\\arm\\5.4.
 219              		.file 3 "c:\\program files (x86)\\cypress\\psoc creator\\4.4\\psoc creator\\import\\gnu\\arm\\5.4.
 220              		.file 4 "Generated_Source\\PSoC5/cytypes.h"
 221              		.file 5 "<built-in>"
 222              		.file 6 "Generated_Source\\PSoC5/UART_1.h"
 223              		.file 7 "Generated_Source\\PSoC5/I2C_1.h"
 224              		.file 8 "Generated_Source\\PSoC5/core_cm3.h"