ARM GAS  C:\Users\jakob\AppData\Local\Temp\ccKBfkAb.s 			page 1


   1              		.syntax unified
   2              		.cpu cortex-m3
   3              		.fpu softvfp
   4              		.eabi_attribute 20, 1
   5              		.eabi_attribute 21, 1
   6              		.eabi_attribute 23, 3
   7              		.eabi_attribute 24, 1
   8              		.eabi_attribute 25, 1
   9              		.eabi_attribute 26, 1
  10              		.eabi_attribute 30, 1
  11              		.eabi_attribute 34, 1
  12              		.eabi_attribute 18, 4
  13              		.thumb
  14              		.syntax unified
  15              		.file	"I2C.c"
  16              		.text
  17              	.Ltext0:
  18              		.cfi_sections	.debug_frame
  19              		.global	__aeabi_ui2f
  20              		.global	__aeabi_fmul
  21              		.section	.text.convertMeasurement,"ax",%progbits
  22              		.align	2
  23              		.global	convertMeasurement
  24              		.thumb
  25              		.thumb_func
  26              		.type	convertMeasurement, %function
  27              	convertMeasurement:
  28              	.LFB64:
  29              		.file 1 "I2C.c"
   1:I2C.c         **** #include "I2C.h"
   2:I2C.c         **** 
   3:I2C.c         **** float readAndReturn(uint8 adress)
   4:I2C.c         **** {
   5:I2C.c         ****     uint8 errorMSG, byte1, byte2;
   6:I2C.c         ****     float temperature;
   7:I2C.c         ****     /*Send start til slave 1. Gem error MSG */
   8:I2C.c         ****     errorMSG = I2C_1_MasterSendStart(adress,1); 
   9:I2C.c         ****       if(errorMSG == I2C_1_MSTR_NO_ERROR) 
  10:I2C.c         ****             {
  11:I2C.c         ****             //Læs første byte. MSB kommer først. Send ACK efter
  12:I2C.c         ****             byte1 = I2C_1_MasterReadByte(I2C_1_ACK_DATA); 
  13:I2C.c         ****             
  14:I2C.c         ****             //Læs andet byte. Kun LSB her. Send NACK, så den ikke sender mere.
  15:I2C.c         ****             byte2 = I2C_1_MasterReadByte(I2C_1_NAK_DATA); 
  16:I2C.c         ****            
  17:I2C.c         ****             //Bed den om at stoppe
  18:I2C.c         ****             I2C_1_MasterSendStop(); 
  19:I2C.c         ****             }
  20:I2C.c         ****         else
  21:I2C.c         ****             {
  22:I2C.c         ****             I2C_1_MasterSendStop(); 
  23:I2C.c         ****             UART_1_PutString("START NOT ACKNOWLEDGED");   
  24:I2C.c         ****             }
  25:I2C.c         ****     
  26:I2C.c         **** 
  27:I2C.c         ****         
  28:I2C.c         ****     //Konverter fra 2's complement til float
ARM GAS  C:\Users\jakob\AppData\Local\Temp\ccKBfkAb.s 			page 2


  29:I2C.c         ****     temperature = convertMeasurement(byte1, byte2); 
  30:I2C.c         ****     //Udskriv float i UART
  31:I2C.c         ****     return temperature; 
  32:I2C.c         **** }
  33:I2C.c         **** 
  34:I2C.c         **** 
  35:I2C.c         **** float convertMeasurement(uint8 byte1, uint8 byte2)
  36:I2C.c         **** {
  30              		.loc 1 36 0
  31              		.cfi_startproc
  32              		@ args = 0, pretend = 0, frame = 0
  33              		@ frame_needed = 0, uses_anonymous_args = 0
  34              	.LVL0:
  35 0000 10B5     		push	{r4, lr}
  36              		.cfi_def_cfa_offset 8
  37              		.cfi_offset 4, -8
  38              		.cfi_offset 14, -4
  39              	.LVL1:
  37:I2C.c         ****     //temporary variable til bitshifting
  38:I2C.c         ****     uint8 temp1, temp2; 
  39:I2C.c         ****     //Det ene most significant bit bliver gemt her til sidst. (BIT 8)
  40:I2C.c         ****     uint8 msb;
  41:I2C.c         ****     //De 8 LSBs bliver gemt her. Bit 0:7
  42:I2C.c         ****     uint8 lsb; 
  43:I2C.c         ****     float temperature;
  44:I2C.c         ****     
  45:I2C.c         ****     msb = byte1>>7; // Fortegn ligger her. MSB 
  46:I2C.c         ****     temp1 = byte2>>7;
  47:I2C.c         ****     temp2 = byte1<<1;
  40              		.loc 1 47 0
  41 0002 4300     		lsls	r3, r0, #1
  42 0004 DBB2     		uxtb	r3, r3
  43              	.LVL2:
  48:I2C.c         ****     lsb = temp1 + temp2; /* Temperatur ligger her */
  44              		.loc 1 48 0
  45 0006 03EBD111 		add	r1, r3, r1, lsr #7
  46              	.LVL3:
  47 000a C9B2     		uxtb	r1, r1
  48              	.LVL4:
  49:I2C.c         ****     
  50:I2C.c         ****     if(msb == 0)
  49              		.loc 1 50 0
  50 000c C009     		lsrs	r0, r0, #7
  51              	.LVL5:
  52 000e 08D1     		bne	.L2
  51:I2C.c         ****     {
  52:I2C.c         ****         temperature = (float)lsb/2;
  53              		.loc 1 52 0
  54 0010 0846     		mov	r0, r1
  55 0012 FFF7FEFF 		bl	__aeabi_ui2f
  56              	.LVL6:
  57 0016 4FF07C51 		mov	r1, #1056964608
  58 001a FFF7FEFF 		bl	__aeabi_fmul
  59              	.LVL7:
  60 001e 0446     		mov	r4, r0
  61              	.LVL8:
  62 0020 0FE0     		b	.L3
ARM GAS  C:\Users\jakob\AppData\Local\Temp\ccKBfkAb.s 			page 3


  63              	.LVL9:
  64              	.L2:
  53:I2C.c         ****     }
  54:I2C.c         ****     else if(msb == 1)
  65              		.loc 1 54 0
  66 0022 58B1     		cbz	r0, .L4
  55:I2C.c         ****     {
  56:I2C.c         ****         lsb = ~lsb + 0b00000001;
  67              		.loc 1 56 0
  68 0024 4842     		negs	r0, r1
  69              	.LVL10:
  57:I2C.c         ****         temperature = -((float)lsb)/2;
  70              		.loc 1 57 0
  71 0026 C0B2     		uxtb	r0, r0
  72 0028 FFF7FEFF 		bl	__aeabi_ui2f
  73              	.LVL11:
  74 002c 00F10040 		add	r0, r0, #-2147483648
  75 0030 4FF07C51 		mov	r1, #1056964608
  76 0034 FFF7FEFF 		bl	__aeabi_fmul
  77              	.LVL12:
  78 0038 0446     		mov	r4, r0
  79              	.LVL13:
  80 003a 02E0     		b	.L3
  81              	.LVL14:
  82              	.L4:
  58:I2C.c         ****     }
  59:I2C.c         ****     else
  60:I2C.c         ****     {
  61:I2C.c         ****         UART_1_PutString("SOMETHING WENT WRONG IN MEASUREMENT CONVERSION");
  83              		.loc 1 61 0
  84 003c 0248     		ldr	r0, .L6
  85 003e FFF7FEFF 		bl	UART_1_PutString
  86              	.LVL15:
  87              	.L3:
  62:I2C.c         ****     }
  63:I2C.c         ****    
  64:I2C.c         ****     return temperature;
  65:I2C.c         **** }...
  88              		.loc 1 65 0
  89 0042 2046     		mov	r0, r4
  90 0044 10BD     		pop	{r4, pc}
  91              	.LVL16:
  92              	.L7:
  93 0046 00BF     		.align	2
  94              	.L6:
  95 0048 00000000 		.word	.LC0
  96              		.cfi_endproc
  97              	.LFE64:
  98              		.size	convertMeasurement, .-convertMeasurement
  99              		.section	.text.readAndReturn,"ax",%progbits
 100              		.align	2
 101              		.global	readAndReturn
 102              		.thumb
 103              		.thumb_func
 104              		.type	readAndReturn, %function
 105              	readAndReturn:
 106              	.LFB63:
ARM GAS  C:\Users\jakob\AppData\Local\Temp\ccKBfkAb.s 			page 4


   4:I2C.c         ****     uint8 errorMSG, byte1, byte2;
 107              		.loc 1 4 0
 108              		.cfi_startproc
 109              		@ args = 0, pretend = 0, frame = 0
 110              		@ frame_needed = 0, uses_anonymous_args = 0
 111              	.LVL17:
 112 0000 38B5     		push	{r3, r4, r5, lr}
 113              		.cfi_def_cfa_offset 16
 114              		.cfi_offset 3, -16
 115              		.cfi_offset 4, -12
 116              		.cfi_offset 5, -8
 117              		.cfi_offset 14, -4
   8:I2C.c         ****     errorMSG = I2C_1_MasterSendStart(adress,1); 
 118              		.loc 1 8 0
 119 0002 0121     		movs	r1, #1
 120 0004 FFF7FEFF 		bl	I2C_1_MasterSendStart
 121              	.LVL18:
   9:I2C.c         ****       if(errorMSG == I2C_1_MSTR_NO_ERROR) 
 122              		.loc 1 9 0
 123 0008 50B9     		cbnz	r0, .L9
  12:I2C.c         ****             byte1 = I2C_1_MasterReadByte(I2C_1_ACK_DATA); 
 124              		.loc 1 12 0
 125 000a 0120     		movs	r0, #1
 126              	.LVL19:
 127 000c FFF7FEFF 		bl	I2C_1_MasterReadByte
 128              	.LVL20:
 129 0010 0446     		mov	r4, r0
 130              	.LVL21:
  15:I2C.c         ****             byte2 = I2C_1_MasterReadByte(I2C_1_NAK_DATA); 
 131              		.loc 1 15 0
 132 0012 0020     		movs	r0, #0
 133 0014 FFF7FEFF 		bl	I2C_1_MasterReadByte
 134              	.LVL22:
 135 0018 0546     		mov	r5, r0
 136              	.LVL23:
  18:I2C.c         ****             I2C_1_MasterSendStop(); 
 137              		.loc 1 18 0
 138 001a FFF7FEFF 		bl	I2C_1_MasterSendStop
 139              	.LVL24:
 140 001e 04E0     		b	.L10
 141              	.LVL25:
 142              	.L9:
  22:I2C.c         ****             I2C_1_MasterSendStop(); 
 143              		.loc 1 22 0
 144 0020 FFF7FEFF 		bl	I2C_1_MasterSendStop
 145              	.LVL26:
  23:I2C.c         ****             UART_1_PutString("START NOT ACKNOWLEDGED");   
 146              		.loc 1 23 0
 147 0024 0348     		ldr	r0, .L12
 148 0026 FFF7FEFF 		bl	UART_1_PutString
 149              	.LVL27:
 150              	.L10:
  29:I2C.c         ****     temperature = convertMeasurement(byte1, byte2); 
 151              		.loc 1 29 0
 152 002a 2946     		mov	r1, r5
 153 002c 2046     		mov	r0, r4
 154 002e FFF7FEFF 		bl	convertMeasurement
ARM GAS  C:\Users\jakob\AppData\Local\Temp\ccKBfkAb.s 			page 5


 155              	.LVL28:
  32:I2C.c         **** }
 156              		.loc 1 32 0
 157 0032 38BD     		pop	{r3, r4, r5, pc}
 158              	.LVL29:
 159              	.L13:
 160              		.align	2
 161              	.L12:
 162 0034 30000000 		.word	.LC1
 163              		.cfi_endproc
 164              	.LFE63:
 165              		.size	readAndReturn, .-readAndReturn
 166              		.section	.rodata.str1.4,"aMS",%progbits,1
 167              		.align	2
 168              	.LC0:
 169 0000 534F4D45 		.ascii	"SOMETHING WENT WRONG IN MEASUREMENT CONVERSION\000"
 169      5448494E 
 169      47205745 
 169      4E542057 
 169      524F4E47 
 170 002f 00       		.space	1
 171              	.LC1:
 172 0030 53544152 		.ascii	"START NOT ACKNOWLEDGED\000"
 172      54204E4F 
 172      54204143 
 172      4B4E4F57 
 172      4C454447 
 173              		.text
 174              	.Letext0:
 175              		.file 2 "c:\\program files (x86)\\cypress\\psoc creator\\4.4\\psoc creator\\import\\gnu\\arm\\5.4.
 176              		.file 3 "c:\\program files (x86)\\cypress\\psoc creator\\4.4\\psoc creator\\import\\gnu\\arm\\5.4.
 177              		.file 4 "Generated_Source\\PSoC5/cytypes.h"
 178              		.file 5 "Generated_Source\\PSoC5/UART_1.h"
 179              		.file 6 "Generated_Source\\PSoC5/I2C_1.h"
 180              		.file 7 "Generated_Source\\PSoC5/core_cm3.h"