ARM GAS  C:\Users\Bruger\AppData\Local\Temp\ccRVjgKy.s 			page 1


   1              		.syntax unified
   2              		.cpu cortex-m3
   3              		.fpu softvfp
   4              		.eabi_attribute 20, 1
   5              		.eabi_attribute 21, 1
   6              		.eabi_attribute 23, 3
   7              		.eabi_attribute 24, 1
   8              		.eabi_attribute 25, 1
   9              		.eabi_attribute 26, 1
  10              		.eabi_attribute 30, 1
  11              		.eabi_attribute 34, 1
  12              		.eabi_attribute 18, 4
  13              		.thumb
  14              		.syntax unified
  15              		.file	"main.c"
  16              		.text
  17              	.Ltext0:
  18              		.cfi_sections	.debug_frame
  19              		.global	__aeabi_fsub
  20              		.global	__aeabi_fcmpgt
  21              		.global	__aeabi_fcmplt
  22              		.global	__aeabi_f2uiz
  23              		.global	__aeabi_f2d
  24              		.section	.text.main,"ax",%progbits
  25              		.align	2
  26              		.global	main
  27              		.thumb
  28              		.thumb_func
  29              		.type	main, %function
  30              	main:
  31              	.LFB64:
  32              		.file 1 "main.c"
   1:main.c        **** /* ========================================
   2:main.c        ****  *
   3:main.c        ****  * Copyright YOUR COMPANY, THE YEAR
   4:main.c        ****  * All Rights Reserved
   5:main.c        ****  * UNPUBLISHED, LICENSED SOFTWARE.
   6:main.c        ****  *
   7:main.c        ****  * CONFIDENTIAL AND PROPRIETARY INFORMATION
   8:main.c        ****  * WHICH IS THE PROPERTY OF your company.
   9:main.c        ****  *
  10:main.c        ****  * ========================================
  11:main.c        **** */
  12:main.c        **** #include <stdio.h>
  13:main.c        **** #include "I2C.h"
  14:main.c        **** #include "PIDControl.h"
  15:main.c        **** 
  16:main.c        **** 
  17:main.c        **** CY_ISR(ISR_UART_rx_handler);
  18:main.c        **** void handleByteReceived(uint8_t byteReceived);
  19:main.c        **** 
  20:main.c        **** static char outputBuffer[256];
  21:main.c        **** float setPoint = 30;
  22:main.c        **** 
  23:main.c        **** #define SAMPLES_PER_SECOND 1
  24:main.c        **** static uint16_t sampleWaitTimeInMilliseconds = 1000 / SAMPLES_PER_SECOND;
  25:main.c        **** 
ARM GAS  C:\Users\Bruger\AppData\Local\Temp\ccRVjgKy.s 			page 2


  26:main.c        **** int main(void)
  27:main.c        **** {
  33              		.loc 1 27 0
  34              		.cfi_startproc
  35              		@ args = 0, pretend = 0, frame = 16
  36              		@ frame_needed = 0, uses_anonymous_args = 0
  37 0000 F0B5     		push	{r4, r5, r6, r7, lr}
  38              		.cfi_def_cfa_offset 20
  39              		.cfi_offset 4, -20
  40              		.cfi_offset 5, -16
  41              		.cfi_offset 6, -12
  42              		.cfi_offset 7, -8
  43              		.cfi_offset 14, -4
  44 0002 99B0     		sub	sp, sp, #100
  45              		.cfi_def_cfa_offset 120
  28:main.c        ****     CyGlobalIntEnable; /* Enable global interrupts. */
  46              		.loc 1 28 0
  47              		.syntax unified
  48              	@ 28 "main.c" 1
  49 0004 62B6     		CPSIE   i
  50              	@ 0 "" 2
  51              	.LVL0:
  29:main.c        **** 
  30:main.c        ****     /* Place your initialization/startup code here (e.g. MyInst_Start()) */
  31:main.c        ****     
  32:main.c        ****     //Slave adresser:
  33:main.c        ****     uint8 slave1 = 0b1001000; 
  34:main.c        ****     
  35:main.c        ****     UART_1_Start();
  52              		.loc 1 35 0
  53              		.thumb
  54              		.syntax unified
  55 0006 FFF7FEFF 		bl	UART_1_Start
  56              	.LVL1:
  36:main.c        ****     isr_1_StartEx(ISR_UART_rx_handler);
  57              		.loc 1 36 0
  58 000a 4348     		ldr	r0, .L7+8
  59 000c FFF7FEFF 		bl	isr_1_StartEx
  60              	.LVL2:
  37:main.c        ****     PWM_Start();
  61              		.loc 1 37 0
  62 0010 FFF7FEFF 		bl	PWM_Start
  63              	.LVL3:
  38:main.c        ****     I2C_1_Start(); /*I2C komponentet initialiseres. I2C interrupts enables */ 
  64              		.loc 1 38 0
  65 0014 FFF7FEFF 		bl	I2C_1_Start
  66              	.LVL4:
  39:main.c        ****     
  40:main.c        ****     float Kp = 4.0f;
  41:main.c        ****     float Ki = 4.0f/30.0f;
  42:main.c        ****     float Kd = 0.0f;
  43:main.c        ****     float integralMax = 1000;
  44:main.c        ****     float integralMin = -1000;
  45:main.c        ****     float temp = 0;
  46:main.c        ****     float controlSignal = 0;
  47:main.c        ****     
  48:main.c        **** 
ARM GAS  C:\Users\Bruger\AppData\Local\Temp\ccRVjgKy.s 			page 3


  49:main.c        ****     float dt = ((float)sampleWaitTimeInMilliseconds) / 1000; // dt is measured in seconds
  50:main.c        ****     PIDControl_init(Kp, Ki, Kd, integralMax, integralMin, dt);
  67              		.loc 1 50 0
  68 0018 4FF07E53 		mov	r3, #1065353216
  69 001c 0193     		str	r3, [sp, #4]	@ float
  70 001e 3F4B     		ldr	r3, .L7+12
  71 0020 0093     		str	r3, [sp]	@ float
  72 0022 3F4B     		ldr	r3, .L7+16
  73 0024 0022     		movs	r2, #0
  74 0026 3F49     		ldr	r1, .L7+20
  75 0028 4FF08140 		mov	r0, #1082130432
  76 002c FFF7FEFF 		bl	PIDControl_init
  77              	.LVL5:
  51:main.c        ****     PIDControl_changeSetPoint(setPoint);
  78              		.loc 1 51 0
  79 0030 3D4B     		ldr	r3, .L7+24
  80 0032 1868     		ldr	r0, [r3]	@ float
  81 0034 FFF7FEFF 		bl	PIDControl_changeSetPoint
  82              	.LVL6:
  52:main.c        **** 
  53:main.c        ****     UART_1_PutString("Temperature control application started\r\n");
  83              		.loc 1 53 0
  84 0038 3C48     		ldr	r0, .L7+28
  85 003a FFF7FEFF 		bl	UART_1_PutString
  86              	.LVL7:
  87              	.L3:
  88              	.LBB2:
  54:main.c        **** 
  55:main.c        ****     for(;;)
  56:main.c        ****     {
  57:main.c        **** 
  58:main.c        ****         
  59:main.c        **** 
  60:main.c        ****         
  61:main.c        ****         
  62:main.c        ****         //Aflæs temperatur
  63:main.c        ****         temp = readAndReturn(slave1);
  89              		.loc 1 63 0
  90 003e 4820     		movs	r0, #72
  91 0040 FFF7FEFF 		bl	readAndReturn
  92              	.LVL8:
  93 0044 0546     		mov	r5, r0
  94              	.LVL9:
  64:main.c        ****         
  65:main.c        ****         
  66:main.c        ****         
  67:main.c        ****         //Beregn controlSignal
  68:main.c        ****         float error = setPoint - temp;
  95              		.loc 1 68 0
  96 0046 0146     		mov	r1, r0
  97 0048 374B     		ldr	r3, .L7+24
  98 004a 1868     		ldr	r0, [r3]	@ float
  99              	.LVL10:
 100 004c FFF7FEFF 		bl	__aeabi_fsub
 101              	.LVL11:
 102 0050 0746     		mov	r7, r0
 103              	.LVL12:
ARM GAS  C:\Users\Bruger\AppData\Local\Temp\ccRVjgKy.s 			page 4


  69:main.c        ****         float proportionalPart = 0;
 104              		.loc 1 69 0
 105 0052 0022     		movs	r2, #0
 106 0054 1592     		str	r2, [sp, #84]	@ float
  70:main.c        ****         float integralPart = 0;
 107              		.loc 1 70 0
 108 0056 1692     		str	r2, [sp, #88]	@ float
  71:main.c        ****         float derivativePart = 0;
 109              		.loc 1 71 0
 110 0058 18AB     		add	r3, sp, #96
 111 005a 43F8042D 		str	r2, [r3, #-4]!	@ float
  72:main.c        ****         controlSignal = PIDControl_doStep(temp, &proportionalPart, &integralPart, &derivativePart);
 112              		.loc 1 72 0
 113 005e 16AA     		add	r2, sp, #88
 114 0060 15A9     		add	r1, sp, #84
 115 0062 2846     		mov	r0, r5
 116              	.LVL13:
 117 0064 FFF7FEFF 		bl	PIDControl_doStep
 118              	.LVL14:
 119 0068 0446     		mov	r4, r0
 120              	.LVL15:
  73:main.c        ****         
  74:main.c        ****         //Juster PWM
  75:main.c        ****         if (controlSignal > 100)
 121              		.loc 1 75 0
 122 006a 3149     		ldr	r1, .L7+32
 123 006c FFF7FEFF 		bl	__aeabi_fcmpgt
 124              	.LVL16:
 125 0070 28B9     		cbnz	r0, .L4
  76:main.c        ****             controlSignal = 100;    
  77:main.c        ****         else if (controlSignal < 0)
 126              		.loc 1 77 0
 127 0072 0021     		movs	r1, #0
 128 0074 2046     		mov	r0, r4
 129 0076 FFF7FEFF 		bl	__aeabi_fcmplt
 130              	.LVL17:
 131 007a 18B1     		cbz	r0, .L2
 132 007c 01E0     		b	.L5
 133              	.L4:
  76:main.c        ****             controlSignal = 100;    
 134              		.loc 1 76 0
 135 007e 2C4C     		ldr	r4, .L7+32
 136              	.LVL18:
 137 0080 00E0     		b	.L2
 138              	.LVL19:
 139              	.L5:
  78:main.c        ****             controlSignal = 0;
 140              		.loc 1 78 0
 141 0082 0024     		movs	r4, #0
 142              	.LVL20:
 143              	.L2:
  79:main.c        ****         
  80:main.c        ****         
  81:main.c        ****         PWM_WriteCompare(controlSignal);
 144              		.loc 1 81 0
 145 0084 2046     		mov	r0, r4
 146 0086 FFF7FEFF 		bl	__aeabi_f2uiz
ARM GAS  C:\Users\Bruger\AppData\Local\Temp\ccRVjgKy.s 			page 5


 147              	.LVL21:
 148 008a C0B2     		uxtb	r0, r0
 149 008c FFF7FEFF 		bl	PWM_WriteCompare
 150              	.LVL22:
  82:main.c        ****         
  83:main.c        ****         
  84:main.c        ****         //Print relevante data til UART
  85:main.c        ****         snprintf(outputBuffer, sizeof(outputBuffer), "%f, %f, %f, %f, %f, %f, %f, %f, %f, %f \r\n",
 151              		.loc 1 85 0
 152 0090 284E     		ldr	r6, .L7+36
 153 0092 1798     		ldr	r0, [sp, #92]	@ float
 154 0094 FFF7FEFF 		bl	__aeabi_f2d
 155              	.LVL23:
 156 0098 CDE91201 		strd	r0, [sp, #72]
 157 009c 1698     		ldr	r0, [sp, #88]	@ float
 158 009e FFF7FEFF 		bl	__aeabi_f2d
 159              	.LVL24:
 160 00a2 CDE91001 		strd	r0, [sp, #64]
 161 00a6 1598     		ldr	r0, [sp, #84]	@ float
 162 00a8 FFF7FEFF 		bl	__aeabi_f2d
 163              	.LVL25:
 164 00ac CDE90E01 		strd	r0, [sp, #56]
 165 00b0 0022     		movs	r2, #0
 166 00b2 0023     		movs	r3, #0
 167 00b4 CDE90C23 		strd	r2, [sp, #48]
 168 00b8 15A3     		adr	r3, .L7
 169 00ba D3E90023 		ldrd	r2, [r3]
 170 00be CDE90A23 		strd	r2, [sp, #40]
 171 00c2 0022     		movs	r2, #0
 172 00c4 1C4B     		ldr	r3, .L7+40
 173 00c6 CDE90823 		strd	r2, [sp, #32]
 174 00ca 2046     		mov	r0, r4
 175 00cc FFF7FEFF 		bl	__aeabi_f2d
 176              	.LVL26:
 177 00d0 CDE90601 		strd	r0, [sp, #24]
 178 00d4 3846     		mov	r0, r7
 179 00d6 FFF7FEFF 		bl	__aeabi_f2d
 180              	.LVL27:
 181 00da CDE90401 		strd	r0, [sp, #16]
 182 00de 2846     		mov	r0, r5
 183 00e0 FFF7FEFF 		bl	__aeabi_f2d
 184              	.LVL28:
 185 00e4 CDE90201 		strd	r0, [sp, #8]
 186 00e8 0F4B     		ldr	r3, .L7+24
 187 00ea 1868     		ldr	r0, [r3]	@ float
 188 00ec FFF7FEFF 		bl	__aeabi_f2d
 189              	.LVL29:
 190 00f0 CDE90001 		strd	r0, [sp]
 191 00f4 114A     		ldr	r2, .L7+44
 192 00f6 4FF48071 		mov	r1, #256
 193 00fa 3046     		mov	r0, r6
 194 00fc FFF7FEFF 		bl	snprintf
 195              	.LVL30:
  86:main.c        ****                                                       setPoint, temp, error, controlSignal, Kp, Ki,
  87:main.c        ****                                                       proportionalPart, integralPart, derivativePar
  88:main.c        ****         UART_1_PutString(outputBuffer);
 196              		.loc 1 88 0
ARM GAS  C:\Users\Bruger\AppData\Local\Temp\ccRVjgKy.s 			page 6


 197 0100 3046     		mov	r0, r6
 198 0102 FFF7FEFF 		bl	UART_1_PutString
 199              	.LVL31:
  89:main.c        **** 
  90:main.c        ****         
  91:main.c        ****         //Vent inden næste måling
  92:main.c        ****         CyDelay(sampleWaitTimeInMilliseconds);
 200              		.loc 1 92 0
 201 0106 4FF47A70 		mov	r0, #1000
 202 010a FFF7FEFF 		bl	CyDelay
 203              	.LVL32:
 204              	.LBE2:
  93:main.c        ****         
  94:main.c        ****         
  95:main.c        ****         
  96:main.c        ****         
  97:main.c        ****     }
 205              		.loc 1 97 0
 206 010e 96E7     		b	.L3
 207              	.L8:
 208              		.align	3
 209              	.L7:
 210 0110 00000020 		.word	536870912
 211 0114 1111C13F 		.word	1069617425
 212 0118 00000000 		.word	ISR_UART_rx_handler
 213 011c 00007AC4 		.word	-998637568
 214 0120 00007A44 		.word	1148846080
 215 0124 8988083E 		.word	1040746633
 216 0128 00000000 		.word	.LANCHOR0
 217 012c 00000000 		.word	.LC0
 218 0130 0000C842 		.word	1120403456
 219 0134 00000000 		.word	.LANCHOR1
 220 0138 00001040 		.word	1074790400
 221 013c 2C000000 		.word	.LC1
 222              		.cfi_endproc
 223              	.LFE64:
 224              		.size	main, .-main
 225              		.section	.text.handleByteReceived,"ax",%progbits
 226              		.align	2
 227              		.global	handleByteReceived
 228              		.thumb
 229              		.thumb_func
 230              		.type	handleByteReceived, %function
 231              	handleByteReceived:
 232              	.LFB66:
  98:main.c        **** }
  99:main.c        **** 
 100:main.c        **** 
 101:main.c        ****         
 102:main.c        **** 
 103:main.c        **** 
 104:main.c        ****  CY_ISR(ISR_UART_rx_handler)
 105:main.c        **** {
 106:main.c        ****     uint8_t bytesToRead = UART_1_GetRxBufferSize();
 107:main.c        ****     while (bytesToRead > 0)
 108:main.c        ****     {
 109:main.c        ****         uint8_t byteReceived = UART_1_ReadRxData();
ARM GAS  C:\Users\Bruger\AppData\Local\Temp\ccRVjgKy.s 			page 7


 110:main.c        ****         UART_1_WriteTxData(byteReceived);
 111:main.c        ****         
 112:main.c        ****         // Sender den modtaget værdi videre
 113:main.c        ****         handleByteReceived(byteReceived);
 114:main.c        ****         
 115:main.c        ****         bytesToRead--;
 116:main.c        ****     }
 117:main.c        **** }
 118:main.c        **** 
 119:main.c        **** // Modtager værdien sendt fra UARTen
 120:main.c        **** void handleByteReceived(uint8_t byteReceived)
 121:main.c        **** {
 233              		.loc 1 121 0
 234              		.cfi_startproc
 235              		@ args = 0, pretend = 0, frame = 0
 236              		@ frame_needed = 0, uses_anonymous_args = 0
 237              	.LVL33:
 238 0000 08B5     		push	{r3, lr}
 239              		.cfi_def_cfa_offset 8
 240              		.cfi_offset 3, -8
 241              		.cfi_offset 14, -4
 122:main.c        ****     switch(byteReceived)
 242              		.loc 1 122 0
 243 0002 3228     		cmp	r0, #50
 244 0004 04D0     		beq	.L11
 245 0006 3328     		cmp	r0, #51
 246 0008 08D0     		beq	.L12
 247 000a 3128     		cmp	r0, #49
 248 000c 11D1     		bne	.L9
 249 000e 0BE0     		b	.L13
 250              	.L11:
 123:main.c        ****     {
 124:main.c        ****         case '2' :
 125:main.c        ****         {
 126:main.c        ****             setPoint = 40;
 251              		.loc 1 126 0
 252 0010 0848     		ldr	r0, .L15
 253              	.LVL34:
 254 0012 094B     		ldr	r3, .L15+4
 255 0014 1860     		str	r0, [r3]	@ float
 127:main.c        ****             PIDControl_changeSetPoint(setPoint);
 256              		.loc 1 127 0
 257 0016 FFF7FEFF 		bl	PIDControl_changeSetPoint
 258              	.LVL35:
 128:main.c        ****             
 129:main.c        ****         }
 130:main.c        ****         break;
 259              		.loc 1 130 0
 260 001a 08BD     		pop	{r3, pc}
 261              	.LVL36:
 262              	.L12:
 131:main.c        ****         case '3' :
 132:main.c        ****         {
 133:main.c        ****             setPoint = 50;
 263              		.loc 1 133 0
 264 001c 0748     		ldr	r0, .L15+8
 265              	.LVL37:
ARM GAS  C:\Users\Bruger\AppData\Local\Temp\ccRVjgKy.s 			page 8


 266 001e 064B     		ldr	r3, .L15+4
 267 0020 1860     		str	r0, [r3]	@ float
 134:main.c        ****             PIDControl_changeSetPoint(setPoint);
 268              		.loc 1 134 0
 269 0022 FFF7FEFF 		bl	PIDControl_changeSetPoint
 270              	.LVL38:
 135:main.c        ****         }
 136:main.c        ****         break;
 271              		.loc 1 136 0
 272 0026 08BD     		pop	{r3, pc}
 273              	.LVL39:
 274              	.L13:
 137:main.c        ****         case '1' :
 138:main.c        ****         {
 139:main.c        ****             setPoint = 30;
 275              		.loc 1 139 0
 276 0028 0548     		ldr	r0, .L15+12
 277              	.LVL40:
 278 002a 034B     		ldr	r3, .L15+4
 279 002c 1860     		str	r0, [r3]	@ float
 140:main.c        ****             PIDControl_changeSetPoint(setPoint);
 280              		.loc 1 140 0
 281 002e FFF7FEFF 		bl	PIDControl_changeSetPoint
 282              	.LVL41:
 283              	.L9:
 284 0032 08BD     		pop	{r3, pc}
 285              	.L16:
 286              		.align	2
 287              	.L15:
 288 0034 00002042 		.word	1109393408
 289 0038 00000000 		.word	.LANCHOR0
 290 003c 00004842 		.word	1112014848
 291 0040 0000F041 		.word	1106247680
 292              		.cfi_endproc
 293              	.LFE66:
 294              		.size	handleByteReceived, .-handleByteReceived
 295              		.section	.text.ISR_UART_rx_handler,"ax",%progbits
 296              		.align	2
 297              		.global	ISR_UART_rx_handler
 298              		.thumb
 299              		.thumb_func
 300              		.type	ISR_UART_rx_handler, %function
 301              	ISR_UART_rx_handler:
 302              	.LFB65:
 105:main.c        ****     uint8_t bytesToRead = UART_1_GetRxBufferSize();
 303              		.loc 1 105 0
 304              		.cfi_startproc
 305              		@ args = 0, pretend = 0, frame = 0
 306              		@ frame_needed = 0, uses_anonymous_args = 0
 307 0000 38B5     		push	{r3, r4, r5, lr}
 308              		.cfi_def_cfa_offset 16
 309              		.cfi_offset 3, -16
 310              		.cfi_offset 4, -12
 311              		.cfi_offset 5, -8
 312              		.cfi_offset 14, -4
 106:main.c        ****     while (bytesToRead > 0)
 313              		.loc 1 106 0
ARM GAS  C:\Users\Bruger\AppData\Local\Temp\ccRVjgKy.s 			page 9


 314 0002 FFF7FEFF 		bl	UART_1_GetRxBufferSize
 315              	.LVL42:
 316 0006 0446     		mov	r4, r0
 317              	.LVL43:
 107:main.c        ****     {
 318              		.loc 1 107 0
 319 0008 09E0     		b	.L18
 320              	.L19:
 321              	.LBB3:
 109:main.c        ****         UART_1_WriteTxData(byteReceived);
 322              		.loc 1 109 0
 323 000a FFF7FEFF 		bl	UART_1_ReadRxData
 324              	.LVL44:
 325 000e 0546     		mov	r5, r0
 326              	.LVL45:
 110:main.c        ****         
 327              		.loc 1 110 0
 328 0010 FFF7FEFF 		bl	UART_1_WriteTxData
 329              	.LVL46:
 113:main.c        ****         
 330              		.loc 1 113 0
 331 0014 2846     		mov	r0, r5
 332 0016 FFF7FEFF 		bl	handleByteReceived
 333              	.LVL47:
 115:main.c        ****     }
 334              		.loc 1 115 0
 335 001a 013C     		subs	r4, r4, #1
 336              	.LVL48:
 337 001c E4B2     		uxtb	r4, r4
 338              	.LVL49:
 339              	.L18:
 340              	.LBE3:
 107:main.c        ****     {
 341              		.loc 1 107 0
 342 001e 002C     		cmp	r4, #0
 343 0020 F3D1     		bne	.L19
 117:main.c        **** 
 344              		.loc 1 117 0
 345 0022 38BD     		pop	{r3, r4, r5, pc}
 346              		.cfi_endproc
 347              	.LFE65:
 348              		.size	ISR_UART_rx_handler, .-ISR_UART_rx_handler
 349              		.global	setPoint
 350              		.data
 351              		.align	2
 352              		.set	.LANCHOR0,. + 0
 353              		.type	setPoint, %object
 354              		.size	setPoint, 4
 355              	setPoint:
 356 0000 0000F041 		.word	1106247680
 357              		.section	.rodata.str1.4,"aMS",%progbits,1
 358              		.align	2
 359              	.LC0:
 360 0000 54656D70 		.ascii	"Temperature control application started\015\012\000"
 360      65726174 
 360      75726520 
 360      636F6E74 
ARM GAS  C:\Users\Bruger\AppData\Local\Temp\ccRVjgKy.s 			page 10


 360      726F6C20 
 361 002a 0000     		.space	2
 362              	.LC1:
 363 002c 25662C20 		.ascii	"%f, %f, %f, %f, %f, %f, %f, %f, %f, %f \015\012\000"
 363      25662C20 
 363      25662C20 
 363      25662C20 
 363      25662C20 
 364              		.bss
 365              		.align	2
 366              		.set	.LANCHOR1,. + 0
 367              		.type	outputBuffer, %object
 368              		.size	outputBuffer, 256
 369              	outputBuffer:
 370 0000 00000000 		.space	256
 370      00000000 
 370      00000000 
 370      00000000 
 370      00000000 
 371              		.text
 372              	.Letext0:
 373              		.file 2 "c:\\program files (x86)\\cypress\\psoc creator\\4.4\\psoc creator\\import\\gnu\\arm\\5.4.
 374              		.file 3 "c:\\program files (x86)\\cypress\\psoc creator\\4.4\\psoc creator\\import\\gnu\\arm\\5.4.
 375              		.file 4 "Generated_Source\\PSoC5/cytypes.h"
 376              		.file 5 "Generated_Source\\PSoC5/core_cm3.h"
 377              		.file 6 "I2C.h"
 378              		.file 7 "PIDControl.h"
 379              		.file 8 "Generated_Source\\PSoC5/PWM.h"
 380              		.file 9 "c:\\program files (x86)\\cypress\\psoc creator\\4.4\\psoc creator\\import\\gnu\\arm\\5.4.
 381              		.file 10 "Generated_Source\\PSoC5/UART_1.h"
 382              		.file 11 "Generated_Source\\PSoC5/CyLib.h"
 383              		.file 12 "Generated_Source\\PSoC5/isr_1.h"
 384              		.file 13 "Generated_Source\\PSoC5/I2C_1.h"