ARM GAS  C:\Users\Bruger\AppData\Local\Temp\ccbKPyb3.s 			page 1


   1              		.syntax unified
   2              		.cpu cortex-m3
   3              		.fpu softvfp
   4              		.eabi_attribute 20, 1
   5              		.eabi_attribute 21, 1
   6              		.eabi_attribute 23, 3
   7              		.eabi_attribute 24, 1
   8              		.eabi_attribute 25, 1
   9              		.eabi_attribute 26, 1
  10              		.eabi_attribute 30, 1
  11              		.eabi_attribute 34, 1
  12              		.eabi_attribute 18, 4
  13              		.thumb
  14              		.syntax unified
  15              		.file	"PIDControl.c"
  16              		.text
  17              	.Ltext0:
  18              		.cfi_sections	.debug_frame
  19              		.section	.text.PIDControl_init,"ax",%progbits
  20              		.align	2
  21              		.global	PIDControl_init
  22              		.thumb
  23              		.thumb_func
  24              		.type	PIDControl_init, %function
  25              	PIDControl_init:
  26              	.LFB0:
  27              		.file 1 "PIDControl.c"
   1:PIDControl.c  **** /* ========================================
   2:PIDControl.c  ****  *
   3:PIDControl.c  ****  * Copyright YOUR COMPANY, THE YEAR
   4:PIDControl.c  ****  * All Rights Reserved
   5:PIDControl.c  ****  * UNPUBLISHED, LICENSED SOFTWARE.
   6:PIDControl.c  ****  *
   7:PIDControl.c  ****  * CONFIDENTIAL AND PROPRIETARY INFORMATION
   8:PIDControl.c  ****  * WHICH IS THE PROPERTY OF your company.
   9:PIDControl.c  ****  *
  10:PIDControl.c  ****  * ========================================
  11:PIDControl.c  **** */
  12:PIDControl.c  **** #include "PIDControl.h"
  13:PIDControl.c  **** 
  14:PIDControl.c  **** static float Kp = 0;
  15:PIDControl.c  **** static float Ki = 0;
  16:PIDControl.c  **** static float Kd = 0;
  17:PIDControl.c  **** static float dt = 0;
  18:PIDControl.c  **** static float integralMax = 0;
  19:PIDControl.c  **** static float integralMin = 0;
  20:PIDControl.c  **** static float setPoint = 0;
  21:PIDControl.c  **** static float integral = 0;
  22:PIDControl.c  **** static float previousError = 0;
  23:PIDControl.c  **** 
  24:PIDControl.c  **** void PIDControl_init(float _Kp, float _Ki, float _Kd, float _integralMax, float _integralMin, float
  25:PIDControl.c  **** {
  28              		.loc 1 25 0
  29              		.cfi_startproc
  30              		@ args = 8, pretend = 0, frame = 0
  31              		@ frame_needed = 0, uses_anonymous_args = 0
  32              		@ link register save eliminated.
ARM GAS  C:\Users\Bruger\AppData\Local\Temp\ccbKPyb3.s 			page 2


  33              	.LVL0:
  34 0000 10B4     		push	{r4}
  35              		.cfi_def_cfa_offset 4
  36              		.cfi_offset 4, -4
  26:PIDControl.c  ****     Kp = _Kp;
  37              		.loc 1 26 0
  38 0002 054C     		ldr	r4, .L3
  39 0004 2060     		str	r0, [r4]	@ float
  27:PIDControl.c  ****     Ki = _Ki;
  40              		.loc 1 27 0
  41 0006 6160     		str	r1, [r4, #4]	@ float
  28:PIDControl.c  ****     Kd = _Kd;
  42              		.loc 1 28 0
  43 0008 A260     		str	r2, [r4, #8]	@ float
  29:PIDControl.c  ****     integralMax = _integralMax;
  44              		.loc 1 29 0
  45 000a E360     		str	r3, [r4, #12]	@ float
  30:PIDControl.c  ****     integralMin = _integralMin;
  46              		.loc 1 30 0
  47 000c 019B     		ldr	r3, [sp, #4]	@ float
  48              	.LVL1:
  49 000e 2361     		str	r3, [r4, #16]	@ float
  31:PIDControl.c  ****     dt = _dt;
  50              		.loc 1 31 0
  51 0010 029B     		ldr	r3, [sp, #8]	@ float
  52 0012 6361     		str	r3, [r4, #20]	@ float
  32:PIDControl.c  **** }
  53              		.loc 1 32 0
  54 0014 10BC     		pop	{r4}
  55              		.cfi_restore 4
  56              		.cfi_def_cfa_offset 0
  57              	.LVL2:
  58 0016 7047     		bx	lr
  59              	.L4:
  60              		.align	2
  61              	.L3:
  62 0018 00000000 		.word	.LANCHOR0
  63              		.cfi_endproc
  64              	.LFE0:
  65              		.size	PIDControl_init, .-PIDControl_init
  66              		.section	.text.PIDControl_changeSetPoint,"ax",%progbits
  67              		.align	2
  68              		.global	PIDControl_changeSetPoint
  69              		.thumb
  70              		.thumb_func
  71              		.type	PIDControl_changeSetPoint, %function
  72              	PIDControl_changeSetPoint:
  73              	.LFB1:
  33:PIDControl.c  **** 
  34:PIDControl.c  **** void PIDControl_changeSetPoint(float _setPoint)
  35:PIDControl.c  **** {
  74              		.loc 1 35 0
  75              		.cfi_startproc
  76              		@ args = 0, pretend = 0, frame = 0
  77              		@ frame_needed = 0, uses_anonymous_args = 0
  78              		@ link register save eliminated.
  79              	.LVL3:
ARM GAS  C:\Users\Bruger\AppData\Local\Temp\ccbKPyb3.s 			page 3


  36:PIDControl.c  ****     setPoint = _setPoint;
  80              		.loc 1 36 0
  81 0000 014B     		ldr	r3, .L6
  82 0002 9861     		str	r0, [r3, #24]	@ float
  83 0004 7047     		bx	lr
  84              	.L7:
  85 0006 00BF     		.align	2
  86              	.L6:
  87 0008 00000000 		.word	.LANCHOR0
  88              		.cfi_endproc
  89              	.LFE1:
  90              		.size	PIDControl_changeSetPoint, .-PIDControl_changeSetPoint
  91              		.global	__aeabi_fsub
  92              		.global	__aeabi_fmul
  93              		.global	__aeabi_fadd
  94              		.global	__aeabi_fcmpgt
  95              		.global	__aeabi_fcmplt
  96              		.global	__aeabi_fdiv
  97              		.section	.text.PIDControl_doStep,"ax",%progbits
  98              		.align	2
  99              		.global	PIDControl_doStep
 100              		.thumb
 101              		.thumb_func
 102              		.type	PIDControl_doStep, %function
 103              	PIDControl_doStep:
 104              	.LFB2:
  37:PIDControl.c  **** }
  38:PIDControl.c  **** 
  39:PIDControl.c  **** float PIDControl_doStep(float systemOutput, float* proportionalPart, float* integralPart, float* de
  40:PIDControl.c  **** {
 105              		.loc 1 40 0
 106              		.cfi_startproc
 107              		@ args = 0, pretend = 0, frame = 8
 108              		@ frame_needed = 0, uses_anonymous_args = 0
 109              	.LVL4:
 110 0000 2DE9F04F 		push	{r4, r5, r6, r7, r8, r9, r10, fp, lr}
 111              		.cfi_def_cfa_offset 36
 112              		.cfi_offset 4, -36
 113              		.cfi_offset 5, -32
 114              		.cfi_offset 6, -28
 115              		.cfi_offset 7, -24
 116              		.cfi_offset 8, -20
 117              		.cfi_offset 9, -16
 118              		.cfi_offset 10, -12
 119              		.cfi_offset 11, -8
 120              		.cfi_offset 14, -4
 121 0004 83B0     		sub	sp, sp, #12
 122              		.cfi_def_cfa_offset 48
 123 0006 8B46     		mov	fp, r1
 124 0008 9246     		mov	r10, r2
 125 000a 9946     		mov	r9, r3
 126              	.LVL5:
  41:PIDControl.c  ****     float output = 0;
  42:PIDControl.c  ****     float proportional = 0;
  43:PIDControl.c  ****     float derivative = 0;
  44:PIDControl.c  ****     float currentError = 0;
  45:PIDControl.c  ****     
ARM GAS  C:\Users\Bruger\AppData\Local\Temp\ccbKPyb3.s 			page 4


  46:PIDControl.c  ****     // calculate current error
  47:PIDControl.c  ****     currentError = setPoint - systemOutput;
 127              		.loc 1 47 0
 128 000c 244C     		ldr	r4, .L16
 129 000e 0146     		mov	r1, r0
 130              	.LVL6:
 131 0010 A069     		ldr	r0, [r4, #24]	@ float
 132              	.LVL7:
 133 0012 FFF7FEFF 		bl	__aeabi_fsub
 134              	.LVL8:
 135 0016 0546     		mov	r5, r0
 136              	.LVL9:
  48:PIDControl.c  ****     
  49:PIDControl.c  ****     // calculate proportional part
  50:PIDControl.c  ****     proportional = currentError;
  51:PIDControl.c  ****     
  52:PIDControl.c  ****     // calculate integral part
  53:PIDControl.c  ****     integral = integral + (currentError * dt);
 137              		.loc 1 53 0
 138 0018 6669     		ldr	r6, [r4, #20]	@ float
 139 001a 3146     		mov	r1, r6
 140 001c FFF7FEFF 		bl	__aeabi_fmul
 141              	.LVL10:
 142 0020 E169     		ldr	r1, [r4, #28]	@ float
 143 0022 FFF7FEFF 		bl	__aeabi_fadd
 144              	.LVL11:
 145 0026 E061     		str	r0, [r4, #28]	@ float
  54:PIDControl.c  ****     
  55:PIDControl.c  ****     // limit the integral
  56:PIDControl.c  ****     if (integral > integralMax) integral = integralMax;
 146              		.loc 1 56 0
 147 0028 E468     		ldr	r4, [r4, #12]	@ float
 148 002a 2146     		mov	r1, r4
 149 002c FFF7FEFF 		bl	__aeabi_fcmpgt
 150              	.LVL12:
 151 0030 08B1     		cbz	r0, .L9
 152              		.loc 1 56 0 is_stmt 0 discriminator 1
 153 0032 1B4B     		ldr	r3, .L16
 154 0034 DC61     		str	r4, [r3, #28]	@ float
 155              	.L9:
  57:PIDControl.c  ****     if (integral < integralMin) integral = integralMin;
 156              		.loc 1 57 0 is_stmt 1
 157 0036 1A4B     		ldr	r3, .L16
 158 0038 1C69     		ldr	r4, [r3, #16]	@ float
 159 003a 2146     		mov	r1, r4
 160 003c D869     		ldr	r0, [r3, #28]	@ float
 161 003e FFF7FEFF 		bl	__aeabi_fcmplt
 162              	.LVL13:
 163 0042 08B1     		cbz	r0, .L11
 164              		.loc 1 57 0 is_stmt 0 discriminator 1
 165 0044 164B     		ldr	r3, .L16
 166 0046 DC61     		str	r4, [r3, #28]	@ float
 167              	.L11:
  58:PIDControl.c  ****     
  59:PIDControl.c  ****     // calculate derivative part
  60:PIDControl.c  ****     derivative = (currentError - previousError) / dt;
 168              		.loc 1 60 0 is_stmt 1
ARM GAS  C:\Users\Bruger\AppData\Local\Temp\ccbKPyb3.s 			page 5


 169 0048 154C     		ldr	r4, .L16
 170 004a 216A     		ldr	r1, [r4, #32]	@ float
 171 004c 2846     		mov	r0, r5
 172 004e FFF7FEFF 		bl	__aeabi_fsub
 173              	.LVL14:
 174 0052 3146     		mov	r1, r6
 175 0054 FFF7FEFF 		bl	__aeabi_fdiv
 176              	.LVL15:
 177 0058 0646     		mov	r6, r0
 178              	.LVL16:
  61:PIDControl.c  ****     
  62:PIDControl.c  ****     output = proportional * Kp + integral * Ki + derivative * Kd;
 179              		.loc 1 62 0
 180 005a 2168     		ldr	r1, [r4]	@ float
 181 005c 2846     		mov	r0, r5
 182              	.LVL17:
 183 005e FFF7FEFF 		bl	__aeabi_fmul
 184              	.LVL18:
 185 0062 8046     		mov	r8, r0
 186 0064 6168     		ldr	r1, [r4, #4]	@ float
 187 0066 E069     		ldr	r0, [r4, #28]	@ float
 188 0068 FFF7FEFF 		bl	__aeabi_fmul
 189              	.LVL19:
 190 006c 0746     		mov	r7, r0
 191 006e 0146     		mov	r1, r0
 192 0070 4046     		mov	r0, r8
 193 0072 FFF7FEFF 		bl	__aeabi_fadd
 194              	.LVL20:
 195 0076 0190     		str	r0, [sp, #4]	@ float
 196 0078 A168     		ldr	r1, [r4, #8]	@ float
 197 007a 3046     		mov	r0, r6
 198 007c FFF7FEFF 		bl	__aeabi_fmul
 199              	.LVL21:
 200 0080 0646     		mov	r6, r0
 201              	.LVL22:
 202 0082 0146     		mov	r1, r0
 203 0084 0198     		ldr	r0, [sp, #4]	@ float
 204 0086 FFF7FEFF 		bl	__aeabi_fadd
 205              	.LVL23:
  63:PIDControl.c  ****     *proportionalPart = proportional * Kp;
 206              		.loc 1 63 0
 207 008a CBF80080 		str	r8, [fp]	@ float
  64:PIDControl.c  ****     *integralPart = integral * Ki;
 208              		.loc 1 64 0
 209 008e CAF80070 		str	r7, [r10]	@ float
  65:PIDControl.c  ****     *derivativePart = derivative * Kd;
 210              		.loc 1 65 0
 211 0092 C9F80060 		str	r6, [r9]	@ float
  66:PIDControl.c  ****     
  67:PIDControl.c  ****     previousError = currentError;
 212              		.loc 1 67 0
 213 0096 2562     		str	r5, [r4, #32]	@ float
  68:PIDControl.c  ****     return output;
  69:PIDControl.c  **** }
 214              		.loc 1 69 0
 215 0098 03B0     		add	sp, sp, #12
 216              		.cfi_def_cfa_offset 36
ARM GAS  C:\Users\Bruger\AppData\Local\Temp\ccbKPyb3.s 			page 6


 217              		@ sp needed
 218 009a BDE8F08F 		pop	{r4, r5, r6, r7, r8, r9, r10, fp, pc}
 219              	.LVL24:
 220              	.L17:
 221 009e 00BF     		.align	2
 222              	.L16:
 223 00a0 00000000 		.word	.LANCHOR0
 224              		.cfi_endproc
 225              	.LFE2:
 226              		.size	PIDControl_doStep, .-PIDControl_doStep
 227              		.bss
 228              		.align	2
 229              		.set	.LANCHOR0,. + 0
 230              		.type	Kp, %object
 231              		.size	Kp, 4
 232              	Kp:
 233 0000 00000000 		.space	4
 234              		.type	Ki, %object
 235              		.size	Ki, 4
 236              	Ki:
 237 0004 00000000 		.space	4
 238              		.type	Kd, %object
 239              		.size	Kd, 4
 240              	Kd:
 241 0008 00000000 		.space	4
 242              		.type	integralMax, %object
 243              		.size	integralMax, 4
 244              	integralMax:
 245 000c 00000000 		.space	4
 246              		.type	integralMin, %object
 247              		.size	integralMin, 4
 248              	integralMin:
 249 0010 00000000 		.space	4
 250              		.type	dt, %object
 251              		.size	dt, 4
 252              	dt:
 253 0014 00000000 		.space	4
 254              		.type	setPoint, %object
 255              		.size	setPoint, 4
 256              	setPoint:
 257 0018 00000000 		.space	4
 258              		.type	integral, %object
 259              		.size	integral, 4
 260              	integral:
 261 001c 00000000 		.space	4
 262              		.type	previousError, %object
 263              		.size	previousError, 4
 264              	previousError:
 265 0020 00000000 		.space	4
 266              		.text
 267              	.Letext0: