ARM GAS  C:\Users\Thomas\AppData\Local\Temp\ccUiRshV.s 			page 1


   1              		.syntax unified
   2              		.cpu cortex-m3
   3              		.fpu softvfp
   4              		.eabi_attribute 20, 1
   5              		.eabi_attribute 21, 1
   6              		.eabi_attribute 23, 3
   7              		.eabi_attribute 24, 1
   8              		.eabi_attribute 25, 1
   9              		.eabi_attribute 26, 1
  10              		.eabi_attribute 30, 1
  11              		.eabi_attribute 34, 1
  12              		.eabi_attribute 18, 4
  13              		.thumb
  14              		.syntax unified
  15              		.file	"main.c"
  16              		.text
  17              	.Ltext0:
  18              		.cfi_sections	.debug_frame
  19              		.section	.text.main,"ax",%progbits
  20              		.align	2
  21              		.global	main
  22              		.thumb
  23              		.thumb_func
  24              		.type	main, %function
  25              	main:
  26              	.LFB63:
  27              		.file 1 "main.c"
   1:main.c        **** #include "project.h"
   2:main.c        **** #include "functions.h" 
   3:main.c        **** 
   4:main.c        **** CY_ISR_PROTO(ISR_UART_rx_handler);
   5:main.c        **** void handleByteReceived(uint8_t byteReceived); 
   6:main.c        **** 
   7:main.c        **** int main(void)
   8:main.c        **** {
  28              		.loc 1 8 0
  29              		.cfi_startproc
  30              		@ Volatile: function does not return.
  31              		@ args = 0, pretend = 0, frame = 0
  32              		@ frame_needed = 0, uses_anonymous_args = 0
  33 0000 08B5     		push	{r3, lr}
  34              		.cfi_def_cfa_offset 8
  35              		.cfi_offset 3, -8
  36              		.cfi_offset 14, -4
   9:main.c        ****     CyGlobalIntEnable; // Starter globale interrupts
  37              		.loc 1 9 0
  38              		.syntax unified
  39              	@ 9 "main.c" 1
  40 0002 62B6     		CPSIE   i
  41              	@ 0 "" 2
  10:main.c        ****      
  11:main.c        ****     isr_uart_rx_StartEx(ISR_UART_rx_handler);
  42              		.loc 1 11 0
  43              		.thumb
  44              		.syntax unified
  45 0004 0C48     		ldr	r0, .L4
  46 0006 FFF7FEFF 		bl	isr_uart_rx_StartEx
ARM GAS  C:\Users\Thomas\AppData\Local\Temp\ccUiRshV.s 			page 2


  47              	.LVL0:
  12:main.c        ****     UART_1_Start(); // Starter UARTen
  48              		.loc 1 12 0
  49 000a FFF7FEFF 		bl	UART_1_Start
  50              	.LVL1:
  13:main.c        ****     PWM_1_Start(); // Starter PWM-signalet
  51              		.loc 1 13 0
  52 000e FFF7FEFF 		bl	PWM_1_Start
  53              	.LVL2:
  14:main.c        ****     
  15:main.c        ****     
  16:main.c        ****     UART_1_PutString("DC-Motor-PWM application started\r\n");
  54              		.loc 1 16 0
  55 0012 0A48     		ldr	r0, .L4+4
  56 0014 FFF7FEFF 		bl	UART_1_PutString
  57              	.LVL3:
  17:main.c        ****     UART_1_PutString("0: Stop\r\n");
  58              		.loc 1 17 0
  59 0018 0948     		ldr	r0, .L4+8
  60 001a FFF7FEFF 		bl	UART_1_PutString
  61              	.LVL4:
  18:main.c        ****     UART_1_PutString("1: Drive forwards\r\n");
  62              		.loc 1 18 0
  63 001e 0948     		ldr	r0, .L4+12
  64 0020 FFF7FEFF 		bl	UART_1_PutString
  65              	.LVL5:
  19:main.c        ****     UART_1_PutString("2: Drive backwards\r\n");
  66              		.loc 1 19 0
  67 0024 0848     		ldr	r0, .L4+16
  68 0026 FFF7FEFF 		bl	UART_1_PutString
  69              	.LVL6:
  20:main.c        ****     UART_1_PutString("q: Decrease speed\r\n");
  70              		.loc 1 20 0
  71 002a 0848     		ldr	r0, .L4+20
  72 002c FFF7FEFF 		bl	UART_1_PutString
  73              	.LVL7:
  21:main.c        ****     UART_1_PutString("w: Increase speed\r\n");
  74              		.loc 1 21 0
  75 0030 0748     		ldr	r0, .L4+24
  76 0032 FFF7FEFF 		bl	UART_1_PutString
  77              	.LVL8:
  78              	.L2:
  79 0036 FEE7     		b	.L2
  80              	.L5:
  81              		.align	2
  82              	.L4:
  83 0038 00000000 		.word	ISR_UART_rx_handler
  84 003c 00000000 		.word	.LC0
  85 0040 24000000 		.word	.LC1
  86 0044 30000000 		.word	.LC2
  87 0048 44000000 		.word	.LC3
  88 004c 5C000000 		.word	.LC4
  89 0050 70000000 		.word	.LC5
  90              		.cfi_endproc
  91              	.LFE63:
  92              		.size	main, .-main
  93              		.section	.text.handleByteReceived,"ax",%progbits
ARM GAS  C:\Users\Thomas\AppData\Local\Temp\ccUiRshV.s 			page 3


  94              		.align	2
  95              		.global	handleByteReceived
  96              		.thumb
  97              		.thumb_func
  98              		.type	handleByteReceived, %function
  99              	handleByteReceived:
 100              	.LFB65:
  22:main.c        **** 
  23:main.c        ****     for(;;)
  24:main.c        ****     {
  25:main.c        ****         // Kører i et uendeligt loop
  26:main.c        ****     }
  27:main.c        **** }
  28:main.c        **** 
  29:main.c        **** CY_ISR(ISR_UART_rx_handler)
  30:main.c        **** {
  31:main.c        ****     uint8_t bytesToRead = UART_1_GetRxBufferSize();
  32:main.c        ****     while (bytesToRead > 0)
  33:main.c        ****     {
  34:main.c        ****         uint8_t byteReceived = UART_1_ReadRxData();
  35:main.c        ****         UART_1_WriteTxData(byteReceived);
  36:main.c        ****         
  37:main.c        ****         // Sender den modtaget værdi videre
  38:main.c        ****         handleByteReceived(byteReceived);
  39:main.c        ****         
  40:main.c        ****         bytesToRead--;
  41:main.c        ****     }
  42:main.c        **** }
  43:main.c        **** 
  44:main.c        **** // Modtager værdien sendt fra UARTen
  45:main.c        **** void handleByteReceived(uint8_t byteReceived)
  46:main.c        **** {
 101              		.loc 1 46 0
 102              		.cfi_startproc
 103              		@ args = 0, pretend = 0, frame = 0
 104              		@ frame_needed = 0, uses_anonymous_args = 0
 105              	.LVL9:
 106 0000 08B5     		push	{r3, lr}
 107              		.cfi_def_cfa_offset 8
 108              		.cfi_offset 3, -8
 109              		.cfi_offset 14, -4
  47:main.c        ****     switch(byteReceived)
 110              		.loc 1 47 0
 111 0002 3228     		cmp	r0, #50
 112 0004 13D0     		beq	.L8
 113 0006 04D8     		bhi	.L9
 114 0008 3028     		cmp	r0, #48
 115 000a 13D0     		beq	.L10
 116 000c 3128     		cmp	r0, #49
 117 000e 0BD0     		beq	.L11
 118 0010 08BD     		pop	{r3, pc}
 119              	.L9:
 120 0012 7128     		cmp	r0, #113
 121 0014 02D0     		beq	.L12
 122 0016 7728     		cmp	r0, #119
 123 0018 03D0     		beq	.L13
 124 001a 08BD     		pop	{r3, pc}
ARM GAS  C:\Users\Thomas\AppData\Local\Temp\ccUiRshV.s 			page 4


 125              	.L12:
  48:main.c        ****     {
  49:main.c        ****         case 'q' :
  50:main.c        ****         {
  51:main.c        ****             decreaseSpeed();
 126              		.loc 1 51 0
 127 001c FFF7FEFF 		bl	decreaseSpeed
 128              	.LVL10:
  52:main.c        ****         }
  53:main.c        ****         break;
 129              		.loc 1 53 0
 130 0020 08BD     		pop	{r3, pc}
 131              	.LVL11:
 132              	.L13:
  54:main.c        ****         case 'w' :
  55:main.c        ****         {
  56:main.c        ****             increaseSpeed();
 133              		.loc 1 56 0
 134 0022 FFF7FEFF 		bl	increaseSpeed
 135              	.LVL12:
  57:main.c        ****         }
  58:main.c        ****         break;
 136              		.loc 1 58 0
 137 0026 08BD     		pop	{r3, pc}
 138              	.LVL13:
 139              	.L11:
  59:main.c        ****         case '1' :
  60:main.c        ****         {
  61:main.c        ****             driveForwards();
 140              		.loc 1 61 0
 141 0028 FFF7FEFF 		bl	driveForwards
 142              	.LVL14:
  62:main.c        ****         }
  63:main.c        ****         break;
 143              		.loc 1 63 0
 144 002c 08BD     		pop	{r3, pc}
 145              	.LVL15:
 146              	.L8:
  64:main.c        ****         case '2' :
  65:main.c        ****         {
  66:main.c        ****             driveBackwards();
 147              		.loc 1 66 0
 148 002e FFF7FEFF 		bl	driveBackwards
 149              	.LVL16:
  67:main.c        ****         }
  68:main.c        ****         break;
 150              		.loc 1 68 0
 151 0032 08BD     		pop	{r3, pc}
 152              	.LVL17:
 153              	.L10:
  69:main.c        ****         case '0' :
  70:main.c        ****         {
  71:main.c        ****             stop();
 154              		.loc 1 71 0
 155 0034 FFF7FEFF 		bl	stop
 156              	.LVL18:
 157 0038 08BD     		pop	{r3, pc}
ARM GAS  C:\Users\Thomas\AppData\Local\Temp\ccUiRshV.s 			page 5


 158              		.cfi_endproc
 159              	.LFE65:
 160              		.size	handleByteReceived, .-handleByteReceived
 161 003a 00BF     		.section	.text.ISR_UART_rx_handler,"ax",%progbits
 162              		.align	2
 163              		.global	ISR_UART_rx_handler
 164              		.thumb
 165              		.thumb_func
 166              		.type	ISR_UART_rx_handler, %function
 167              	ISR_UART_rx_handler:
 168              	.LFB64:
  30:main.c        ****     uint8_t bytesToRead = UART_1_GetRxBufferSize();
 169              		.loc 1 30 0
 170              		.cfi_startproc
 171              		@ args = 0, pretend = 0, frame = 0
 172              		@ frame_needed = 0, uses_anonymous_args = 0
 173 0000 38B5     		push	{r3, r4, r5, lr}
 174              		.cfi_def_cfa_offset 16
 175              		.cfi_offset 3, -16
 176              		.cfi_offset 4, -12
 177              		.cfi_offset 5, -8
 178              		.cfi_offset 14, -4
  31:main.c        ****     while (bytesToRead > 0)
 179              		.loc 1 31 0
 180 0002 FFF7FEFF 		bl	UART_1_GetRxBufferSize
 181              	.LVL19:
 182 0006 0446     		mov	r4, r0
 183              	.LVL20:
  32:main.c        ****     {
 184              		.loc 1 32 0
 185 0008 09E0     		b	.L16
 186              	.L17:
 187              	.LBB2:
  34:main.c        ****         UART_1_WriteTxData(byteReceived);
 188              		.loc 1 34 0
 189 000a FFF7FEFF 		bl	UART_1_ReadRxData
 190              	.LVL21:
 191 000e 0546     		mov	r5, r0
 192              	.LVL22:
  35:main.c        ****         
 193              		.loc 1 35 0
 194 0010 FFF7FEFF 		bl	UART_1_WriteTxData
 195              	.LVL23:
  38:main.c        ****         
 196              		.loc 1 38 0
 197 0014 2846     		mov	r0, r5
 198 0016 FFF7FEFF 		bl	handleByteReceived
 199              	.LVL24:
  40:main.c        ****     }
 200              		.loc 1 40 0
 201 001a 013C     		subs	r4, r4, #1
 202              	.LVL25:
 203 001c E4B2     		uxtb	r4, r4
 204              	.LVL26:
 205              	.L16:
 206              	.LBE2:
  32:main.c        ****     {
ARM GAS  C:\Users\Thomas\AppData\Local\Temp\ccUiRshV.s 			page 6


 207              		.loc 1 32 0
 208 001e 002C     		cmp	r4, #0
 209 0020 F3D1     		bne	.L17
  42:main.c        **** 
 210              		.loc 1 42 0
 211 0022 38BD     		pop	{r3, r4, r5, pc}
 212              		.cfi_endproc
 213              	.LFE64:
 214              		.size	ISR_UART_rx_handler, .-ISR_UART_rx_handler
 215              		.section	.rodata.str1.4,"aMS",%progbits,1
 216              		.align	2
 217              	.LC0:
 218 0000 44432D4D 		.ascii	"DC-Motor-PWM application started\015\012\000"
 218      6F746F72 
 218      2D50574D 
 218      20617070 
 218      6C696361 
 219 0023 00       		.space	1
 220              	.LC1:
 221 0024 303A2053 		.ascii	"0: Stop\015\012\000"
 221      746F700D 
 221      0A00
 222 002e 0000     		.space	2
 223              	.LC2:
 224 0030 313A2044 		.ascii	"1: Drive forwards\015\012\000"
 224      72697665 
 224      20666F72 
 224      77617264 
 224      730D0A00 
 225              	.LC3:
 226 0044 323A2044 		.ascii	"2: Drive backwards\015\012\000"
 226      72697665 
 226      20626163 
 226      6B776172 
 226      64730D0A 
 227 0059 000000   		.space	3
 228              	.LC4:
 229 005c 713A2044 		.ascii	"q: Decrease speed\015\012\000"
 229      65637265 
 229      61736520 
 229      73706565 
 229      640D0A00 
 230              	.LC5:
 231 0070 773A2049 		.ascii	"w: Increase speed\015\012\000"
 231      6E637265 
 231      61736520 
 231      73706565 
 231      640D0A00 
 232              		.text
 233              	.Letext0:
 234              		.file 2 "c:\\program files (x86)\\cypress\\psoc creator\\4.4\\psoc creator\\import\\gnu\\arm\\5.4.
 235              		.file 3 "c:\\program files (x86)\\cypress\\psoc creator\\4.4\\psoc creator\\import\\gnu\\arm\\5.4.
 236              		.file 4 "Generated_Source\\PSoC5/isr_uart_rx.h"
 237              		.file 5 "Generated_Source\\PSoC5/UART_1.h"
 238              		.file 6 "Generated_Source\\PSoC5/PWM_1.h"
 239              		.file 7 "functions.h"
 240              		.file 8 "Generated_Source\\PSoC5/core_cm3.h"
ARM GAS  C:\Users\Thomas\AppData\Local\Temp\ccUiRshV.s 			page 7

